TN:
SF:/Users/gorankostadinov/Workspace/Qt/RightwareDemo/libmain/controler.cpp
FN:14,_ZN9ControlerC1EP5IViewP7QObject
FN:14,_ZN9ControlerC2EP5IViewP7QObject
FN:37,_ZN9ControlerD0Ev
FN:37,_ZN9ControlerD2Ev
FN:37,_ZN9ControlerD1Ev
FN:54,_ZN9Controler6getFPSEv
FN:54,_ZThn16_N9Controler6getFPSEv
FN:59,_ZN9Controler14getStartupTimeEv
FN:59,_ZThn16_N9Controler14getStartupTimeEv
FN:64,_ZThn16_N9Controler17get_GeometryCountEv
FN:64,_ZN9Controler17get_GeometryCountEv
FNDA:14,_ZN9ControlerC2EP5IViewP7QObject
FNDA:14,_ZN9ControlerC1EP5IViewP7QObject
FNDA:14,_ZN9ControlerD2Ev
FNDA:14,_ZN9ControlerD1Ev
FNDA:14,_ZN9ControlerD0Ev
FNDA:28,_ZN9Controler6getFPSEv
FNDA:28,_ZThn16_N9Controler6getFPSEv
FNDA:7,_ZN9Controler14getStartupTimeEv
FNDA:7,_ZThn16_N9Controler14getStartupTimeEv
FNDA:133,_ZN9Controler17get_GeometryCountEv
FNDA:133,_ZThn16_N9Controler17get_GeometryCountEv
FNF:11
FNH:11
DA:18,14
DA:19,28
DA:22,56
DA:23,56
DA:25,56
DA:26,28
DA:27,28
DA:29,56
DA:30,56
DA:31,56
DA:32,56
DA:34,14
DA:35,28
DA:38,42
DA:39,42
DA:40,42
DA:42,42
DA:43,14
DA:44,14
DA:46,42
DA:47,42
DA:48,42
DA:49,42
DA:50,14
DA:51,28
DA:52,42
DA:56,28
DA:57,28
DA:61,7
DA:62,7
DA:66,133
DA:67,133
LF:32
LH:32
end_of_record
SF:/Users/gorankostadinov/Workspace/Qt/RightwareDemo/libmain/icontroler.h
FN:13,_ZN10IControlerC2Ev
FNDA:14,_ZN10IControlerC2Ev
FNF:1
FNH:1
DA:13,14
LF:1
LH:1
end_of_record
SF:/Users/gorankostadinov/Workspace/Qt/RightwareDemo/libmain/model.h
FN:23,_ZN5Model6getFPSEv
FN:24,_ZN5Model14getStartupTimeEv
FN:25,_ZN5Model16getGeometryCountEv
FNDA:28,_ZN5Model6getFPSEv
FNDA:7,_ZN5Model14getStartupTimeEv
FNDA:133,_ZN5Model16getGeometryCountEv
FNF:3
FNH:3
DA:23,28
DA:24,7
DA:25,133
LF:3
LH:3
end_of_record
TN:
SF:/Users/gorankostadinov/Qt/5.5/clang_64/lib/QtCore.framework/Headers/qarraydata.h
FN:219,_ZN15QTypedArrayDataItE10deallocateEP10QArrayData
FNDA:119,_ZN15QTypedArrayDataItE10deallocateEP10QArrayData
FNF:1
FNH:1
DA:222,119
DA:223,119
LF:2
LH:2
end_of_record
SF:/Users/gorankostadinov/Qt/5.5/clang_64/lib/QtCore.framework/Headers/qatomic_x86.h
FN:211,_ZN15QBasicAtomicOpsILi4EE5derefIiEEbRT_
FNDA:119,_ZN15QBasicAtomicOpsILi4EE5derefIiEEbRT_
FNF:1
FNH:1
DA:214,119
DA:220,119
LF:2
LH:2
end_of_record
SF:/Users/gorankostadinov/Qt/5.5/clang_64/lib/QtCore.framework/Headers/qbasicatomic.h
FN:118,_ZNK19QBasicAtomicIntegerIiE4loadEv
FN:130,_ZN19QBasicAtomicIntegerIiE5derefEv
FNDA:119,_ZNK19QBasicAtomicIntegerIiE4loadEv
FNDA:119,_ZN19QBasicAtomicIntegerIiE5derefEv
FNF:2
FNH:2
DA:118,119
DA:130,119
LF:2
LH:2
end_of_record
SF:/Users/gorankostadinov/Qt/5.5/clang_64/lib/QtCore.framework/Headers/qelapsedtimer.h
FN:53,_ZN13QElapsedTimerC1Ev
FN:53,_ZN13QElapsedTimerC2Ev
FNDA:28,_ZN13QElapsedTimerC1Ev
FNDA:28,_ZN13QElapsedTimerC2Ev
FNF:2
FNH:2
DA:56,28
DA:57,56
LF:2
LH:2
end_of_record
SF:/Users/gorankostadinov/Qt/5.5/clang_64/lib/QtCore.framework/Headers/qflags.h
FN:111,_ZN6QFlagsIN10QEventLoop17ProcessEventsFlagEEC1ES1_
FN:111,_ZN6QFlagsIN10QEventLoop17ProcessEventsFlagEEC2ES1_
FNDA:28,_ZN6QFlagsIN10QEventLoop17ProcessEventsFlagEEC1ES1_
FNDA:28,_ZN6QFlagsIN10QEventLoop17ProcessEventsFlagEEC2ES1_
FNF:2
FNH:2
DA:111,56
LF:1
LH:1
end_of_record
SF:/Users/gorankostadinov/Qt/5.5/clang_64/lib/QtCore.framework/Headers/qgenericatomic.h
FN:88,_ZN17QGenericAtomicOpsI15QBasicAtomicOpsILi4EEE4loadIiEET_RKS4_
FNDA:119,_ZN17QGenericAtomicOpsI15QBasicAtomicOpsILi4EEE4loadIiEET_RKS4_
FNF:1
FNH:1
DA:90,119
LF:1
LH:1
end_of_record
SF:/Users/gorankostadinov/Qt/5.5/clang_64/lib/QtCore.framework/Headers/qmetatype.h
FN:1723,_Z11qMetaTypeIdIiEiv
FN:2177,_ZN12QMetaTypeId2IiE14qt_metatype_idEv
FNDA:126,_Z11qMetaTypeIdIiEiv
FNDA:126,_ZN12QMetaTypeId2IiE14qt_metatype_idEv
FNF:2
FNH:2
DA:1726,126
DA:2177,126
LF:2
LH:2
end_of_record
SF:/Users/gorankostadinov/Qt/5.5/clang_64/lib/QtCore.framework/Headers/qrefcount.h
FN:59,_ZN9QtPrivate8RefCount5derefEv
FNDA:119,_ZN9QtPrivate8RefCount5derefEv
FNF:1
FNH:1
DA:60,119
DA:62,119
DA:63,0
DA:65,119
DA:66,0
DA:67,119
DA:68,119
LF:7
LH:5
end_of_record
SF:/Users/gorankostadinov/Qt/5.5/clang_64/lib/QtCore.framework/Headers/qstring.h
FN:649,_ZN7QStringC1EPKc
FN:649,_ZN7QStringC2EPKc
FN:1053,_ZN7QStringD2Ev
FN:1053,_ZN7QStringD1Ev
FNDA:119,_ZN7QStringC1EPKc
FNDA:119,_ZN7QStringC2EPKc
FNDA:119,_ZN7QStringD1Ev
FNDA:119,_ZN7QStringD2Ev
FNF:4
FNH:4
DA:650,357
DA:651,357
DA:1053,476
LF:3
LH:3
end_of_record
SF:/Users/gorankostadinov/Qt/5.5/clang_64/lib/QtTest.framework/Headers/qtestcase.h
FN:281,_ZN5QTest9addColumnIiEEvPKcPT_
FN:290,_ZN5QTest8qCompareIbEEbRKT_S3_PKcS5_S5_i
FN:290,_ZN5QTest8qCompareIiEEbRKT_S3_PKcS5_S5_i
FN:290,_ZN5QTest8qCompareImEEbRKT_S3_PKcS5_S5_i
FNDA:14,_ZN5QTest9addColumnIiEEvPKcPT_
FNDA:63,_ZN5QTest8qCompareImEEbRKT_S3_PKcS5_S5_i
FNDA:21,_ZN5QTest8qCompareIbEEbRKT_S3_PKcS5_S5_i
FNDA:56,_ZN5QTest8qCompareIiEEbRKT_S3_PKcS5_S5_i
FNF:4
FNH:4
DA:285,14
DA:286,14
DA:293,280
DA:294,140
LF:4
LH:4
end_of_record
SF:/Users/gorankostadinov/Qt/5.5/clang_64/lib/QtTest.framework/Headers/qtestdata.h
FN:69,_ZlsIiER9QTestDataS1_RKT_
FNDA:56,_ZlsIiER9QTestDataS1_RKT_
FNF:1
FNH:1
DA:71,56
DA:72,56
LF:2
LH:2
end_of_record
SF:/Users/gorankostadinov/Qt/5.5/clang_64/lib/QtTest.framework/Headers/qtestsystem.h
FN:51,_ZN5QTestL5qWaitEi
FNDA:28,_ZN5QTestL5qWaitEi
FNF:1
FNH:1
DA:55,28
DA:56,28
DA:57,28
DA:58,28
DA:59,28
DA:60,28
DA:61,28
DA:62,28
LF:8
LH:8
end_of_record
SF:/Users/gorankostadinov/Qt/5.5/clang_64/lib/QtWidgets.framework/Headers/qwidget.h
FN:815,_ZNK7QWidget9isVisibleEv
FN:851,_ZNK7QWidget13testAttributeEN2Qt15WidgetAttributeE
FNDA:7,_ZNK7QWidget9isVisibleEv
FNDA:7,_ZNK7QWidget13testAttributeEN2Qt15WidgetAttributeE
FNF:2
FNH:2
DA:816,7
DA:853,7
DA:854,7
DA:855,0
DA:856,7
LF:5
LH:4
end_of_record
SF:/Users/gorankostadinov/Workspace/Qt/RightwareDemo/libmain/view_mainwindow.h
FN:26,_ZN15View_MainWindow12getControlerEv
FN:28,_ZN15View_MainWindow14addOneGeometryEv
FN:29,_ZN15View_MainWindow17removeOneGeometryEv
FN:30,_ZN15View_MainWindow16getGeometryCountEv
FNDA:28,_ZN15View_MainWindow12getControlerEv
FNDA:56,_ZN15View_MainWindow14addOneGeometryEv
FNDA:63,_ZN15View_MainWindow17removeOneGeometryEv
FNDA:322,_ZN15View_MainWindow16getGeometryCountEv
FNF:4
FNH:4
DA:26,28
DA:28,56
DA:29,63
DA:30,322
LF:4
LH:4
end_of_record
SF:/Users/gorankostadinov/Workspace/Qt/RightwareDemo/test/fpstest.cpp
FN:22,_ZN7FPSTestC2EP7QObject
FN:22,_ZN7FPSTestC1EP7QObject
FN:26,_ZN7FPSTest12initTestCaseEv
FN:49,_ZN7FPSTest15cleanupTestCaseEv
FN:56,_ZN7FPSTest4initEv
FN:74,_ZN7FPSTest7cleanupEv
FN:93,_ZN7FPSTest9test_dataEv
FN:119,_ZN7FPSTest4testEv
FNDA:7,_ZN7FPSTestC2EP7QObject
FNDA:7,_ZN7FPSTestC1EP7QObject
FNDA:7,_ZN7FPSTest12initTestCaseEv
FNDA:7,_ZN7FPSTest15cleanupTestCaseEv
FNDA:28,_ZN7FPSTest4initEv
FNDA:28,_ZN7FPSTest7cleanupEv
FNDA:7,_ZN7FPSTest9test_dataEv
FNDA:28,_ZN7FPSTest4testEv
FNF:8
FNH:8
DA:23,7
DA:24,14
DA:28,7
DA:31,7
DA:32,7
DA:35,7
DA:38,7
DA:40,0
DA:43,7
DA:46,14
DA:47,14
DA:51,7
DA:53,7
DA:54,7
DA:59,28
DA:61,70
DA:63,7
DA:65,7
DA:67,7
DA:71,56
DA:72,56
DA:77,28
DA:80,28
DA:82,168
DA:84,56
DA:86,56
DA:88,56
DA:90,28
DA:96,7
DA:97,7
DA:100,7
DA:101,7
DA:102,7
DA:103,7
DA:117,7
DA:121,28
DA:122,28
DA:125,28
DA:126,112
DA:128,56
DA:129,56
DA:131,56
DA:135,28
DA:139,28
DA:140,28
DA:141,0
DA:142,0
DA:144,0
DA:147,56
DA:148,56
DA:149,84
DA:150,56
LF:52
LH:48
end_of_record
TN:
SF:/Users/gorankostadinov/Qt/5.5/clang_64/lib/QtCore.framework/Headers/qatomic.h
FN:53,_ZN14QAtomicIntegerIiEC2Ei
FN:155,_ZN10QAtomicIntC1Ei
FN:155,_ZN10QAtomicIntC2Ei
FNDA:7,_ZN14QAtomicIntegerIiEC2Ei
FNDA:7,_ZN10QAtomicIntC1Ei
FNDA:7,_ZN10QAtomicIntC2Ei
FNF:3
FNH:3
DA:53,7
DA:155,14
LF:2
LH:2
end_of_record
SF:/Users/gorankostadinov/Qt/5.5/clang_64/lib/QtCore.framework/Headers/qatomic_x86.h
FN:280,_ZN15QBasicAtomicOpsILi4EE20fetchAndStoreRelaxedIiEET_RS2_S2_
FN:300,_ZN15QBasicAtomicOpsILi4EE18fetchAndAddRelaxedIiEET_RS2_N19QAtomicAdditiveTypeIS2_E9AdditiveTE
FNDA:96,_ZN15QBasicAtomicOpsILi4EE20fetchAndStoreRelaxedIiEET_RS2_S2_
FNDA:5141,_ZN15QBasicAtomicOpsILi4EE18fetchAndAddRelaxedIiEET_RS2_N19QAtomicAdditiveTypeIS2_E9AdditiveTE
FNF:2
FNH:2
DA:282,96
DA:286,96
DA:303,5141
DA:308,5141
LF:4
LH:4
end_of_record
SF:/Users/gorankostadinov/Qt/5.5/clang_64/lib/QtCore.framework/Headers/qbasicatomic.h
FN:121,_ZNK19QBasicAtomicIntegerIiE11loadAcquireEv
FN:123,_ZNK19QBasicAtomicIntegerIiEcviEv
FN:158,_ZN19QBasicAtomicIntegerIiE20fetchAndStoreAcquireEi
FN:170,_ZN19QBasicAtomicIntegerIiE18fetchAndAddAcquireEi
FN:236,_ZN19QBasicAtomicIntegerIiEC2Ei
FNDA:82,_ZNK19QBasicAtomicIntegerIiE11loadAcquireEv
FNDA:82,_ZNK19QBasicAtomicIntegerIiEcviEv
FNDA:96,_ZN19QBasicAtomicIntegerIiE20fetchAndStoreAcquireEi
FNDA:5141,_ZN19QBasicAtomicIntegerIiE18fetchAndAddAcquireEi
FNDA:7,_ZN19QBasicAtomicIntegerIiEC2Ei
FNF:5
FNH:5
DA:121,82
DA:123,82
DA:159,96
DA:171,5141
DA:236,7
LF:5
LH:5
end_of_record
SF:/Users/gorankostadinov/Qt/5.5/clang_64/lib/QtCore.framework/Headers/qelapsedtimer.h
FN:53,_ZN13QElapsedTimerC2Ev
FN:53,_ZN13QElapsedTimerC1Ev
FNDA:7,_ZN13QElapsedTimerC1Ev
FNDA:7,_ZN13QElapsedTimerC2Ev
FNF:2
FNH:2
DA:56,7
DA:57,14
LF:2
LH:2
end_of_record
SF:/Users/gorankostadinov/Qt/5.5/clang_64/lib/QtCore.framework/Headers/qgenericatomic.h
FN:75,_ZN17QGenericAtomicOpsI15QBasicAtomicOpsILi4EEE18acquireMemoryFenceIiEEvRKT_
FN:83,_ZN17QGenericAtomicOpsI15QBasicAtomicOpsILi4EEE18orderedMemoryFenceIiEEvRKT_
FN:100,_ZN17QGenericAtomicOpsI15QBasicAtomicOpsILi4EEE11loadAcquireIiEET_RKS4_
FN:200,_ZN17QGenericAtomicOpsI15QBasicAtomicOpsILi4EEE20fetchAndStoreAcquireIiiEET_RS4_T0_
FN:235,_ZN17QGenericAtomicOpsI15QBasicAtomicOpsILi4EEE18fetchAndAddAcquireIiEET_RS4_N19QAtomicAdditiveTypeIS4_E9AdditiveTE
FNDA:5319,_ZN17QGenericAtomicOpsI15QBasicAtomicOpsILi4EEE18acquireMemoryFenceIiEEvRKT_
FNDA:5319,_ZN17QGenericAtomicOpsI15QBasicAtomicOpsILi4EEE18orderedMemoryFenceIiEEvRKT_
FNDA:82,_ZN17QGenericAtomicOpsI15QBasicAtomicOpsILi4EEE11loadAcquireIiEET_RKS4_
FNDA:96,_ZN17QGenericAtomicOpsI15QBasicAtomicOpsILi4EEE20fetchAndStoreAcquireIiiEET_RS4_T0_
FNDA:5141,_ZN17QGenericAtomicOpsI15QBasicAtomicOpsILi4EEE18fetchAndAddAcquireIiEET_RS4_N19QAtomicAdditiveTypeIS4_E9AdditiveTE
FNF:5
FNH:5
DA:77,5319
DA:78,5319
DA:85,5319
DA:102,82
DA:103,82
DA:104,82
DA:202,96
DA:203,96
DA:204,96
DA:237,5141
DA:238,5141
DA:239,5141
LF:12
LH:12
end_of_record
SF:/Users/gorankostadinov/Workspace/Qt/RightwareDemo/libmain/helper_profiling.cpp
FN:16,__cxx_global_var_init
FN:18,_ZN16Helper_ProfilingC1EP7QObject
FN:18,_ZN16Helper_ProfilingC2EP7QObject
FN:26,_ZN16Helper_Profiling16resetStartupTimeEv
FN:32,_ZN16Helper_Profiling10stopETimerEv
FN:39,_ZN16Helper_Profiling11startETimerEv
FN:48,_ZN16Helper_Profiling13eventSignaledEv
FN:65,_ZN16Helper_Profiling10timerEventEP11QTimerEvent
FNDA:7,__cxx_global_var_init
FNDA:7,_ZN16Helper_ProfilingC2EP7QObject
FNDA:7,_ZN16Helper_ProfilingC1EP7QObject
FNDA:14,_ZN16Helper_Profiling16resetStartupTimeEv
FNDA:14,_ZN16Helper_Profiling10stopETimerEv
FNDA:14,_ZN16Helper_Profiling11startETimerEv
FNDA:5141,_ZN16Helper_Profiling13eventSignaledEv
FNDA:82,_ZN16Helper_Profiling10timerEventEP11QTimerEvent
FNF:8
FNH:8
DA:16,7
DA:22,14
DA:23,7
DA:24,14
DA:28,14
DA:29,14
DA:30,14
DA:36,14
DA:37,14
DA:41,14
DA:43,7
DA:44,7
DA:45,7
DA:46,14
DA:52,5141
DA:55,5141
DA:56,5141
DA:58,14
DA:59,14
DA:61,14
DA:62,14
DA:63,5141
DA:69,82
DA:72,82
DA:73,82
DA:74,82
DA:75,82
DA:76,164
LF:28
LH:28
end_of_record
SF:/Users/gorankostadinov/Workspace/Qt/RightwareDemo/libmain/helper_profiling.h
FN:20,_ZN16Helper_ProfilingD2Ev
FN:20,_ZN16Helper_ProfilingD1Ev
FNDA:7,_ZN16Helper_ProfilingD1Ev
FNDA:7,_ZN16Helper_ProfilingD2Ev
FNF:2
FNH:2
DA:20,14
LF:1
LH:1
end_of_record
TN:
SF:/Applications/Xcode.app/Contents/Developer/Toolchains/XcodeDefault.xctoolchain/usr/include/c++/v1/type_traits
FN:1603,_ZNSt3__14moveIRP15QTypedArrayDataItEEEONS_16remove_referenceIT_E4typeEOS6_
FN:3530,_ZNSt3__14swapIP15QTypedArrayDataItEEENS_9enable_ifIXaasr21is_move_constructibleIT_EE5valuesr18is_move_assignableIS5_EE5valueEvE4typeERS5_S8_
FNDA:42,_ZNSt3__14moveIRP15QTypedArrayDataItEEEONS_16remove_referenceIT_E4typeEOS6_
FNDA:14,_ZNSt3__14swapIP15QTypedArrayDataItEEENS_9enable_ifIXaasr21is_move_constructibleIT_EE5valuesr18is_move_assignableIS5_EE5valueEvE4typeERS5_S8_
FNF:2
FNH:2
DA:1606,42
DA:3533,14
DA:3534,14
DA:3535,14
DA:3536,14
LF:5
LH:5
end_of_record
SF:/Users/gorankostadinov/Qt/5.5/clang_64/lib/QtCore.framework/Headers/qarraydata.h
FN:116,_ZN10QArrayData10sharedNullEv
FN:219,_ZN15QTypedArrayDataItE10deallocateEP10QArrayData
FN:240,_ZN15QTypedArrayDataItE10sharedNullEv
FNDA:7,_ZN10QArrayData10sharedNullEv
FNDA:42,_ZN15QTypedArrayDataItE10deallocateEP10QArrayData
FNDA:7,_ZN15QTypedArrayDataItE10sharedNullEv
FNF:3
FNH:3
DA:116,7
DA:222,42
DA:223,42
DA:243,7
LF:4
LH:4
end_of_record
SF:/Users/gorankostadinov/Qt/5.5/clang_64/lib/QtCore.framework/Headers/qatomic_x86.h
FN:211,_ZN15QBasicAtomicOpsILi4EE5derefIiEEbRT_
FNDA:84,_ZN15QBasicAtomicOpsILi4EE5derefIiEEbRT_
FNF:1
FNH:1
DA:214,84
DA:220,84
LF:2
LH:2
end_of_record
SF:/Users/gorankostadinov/Qt/5.5/clang_64/lib/QtCore.framework/Headers/qbasicatomic.h
FN:118,_ZNK19QBasicAtomicIntegerIiE4loadEv
FN:130,_ZN19QBasicAtomicIntegerIiE5derefEv
FNDA:91,_ZNK19QBasicAtomicIntegerIiE4loadEv
FNDA:84,_ZN19QBasicAtomicIntegerIiE5derefEv
FNF:2
FNH:2
DA:118,91
DA:130,84
LF:2
LH:2
end_of_record
SF:/Users/gorankostadinov/Qt/5.5/clang_64/lib/QtCore.framework/Headers/qcoreapplication.h
FN:110,_ZN16QCoreApplication8instanceEv
FNDA:84,_ZN16QCoreApplication8instanceEv
FNF:1
FNH:1
DA:110,84
LF:1
LH:1
end_of_record
SF:/Users/gorankostadinov/Qt/5.5/clang_64/lib/QtCore.framework/Headers/qflags.h
FN:111,_ZN6QFlagsIN2Qt19ImageConversionFlagEEC1ES1_
FN:111,_ZN6QFlagsIN2Qt19ImageConversionFlagEEC2ES1_
FNDA:14,_ZN6QFlagsIN2Qt19ImageConversionFlagEEC1ES1_
FNDA:14,_ZN6QFlagsIN2Qt19ImageConversionFlagEEC2ES1_
FNF:2
FNH:2
DA:111,28
LF:1
LH:1
end_of_record
SF:/Users/gorankostadinov/Qt/5.5/clang_64/lib/QtCore.framework/Headers/qgenericatomic.h
FN:88,_ZN17QGenericAtomicOpsI15QBasicAtomicOpsILi4EEE4loadIiEET_RKS4_
FNDA:91,_ZN17QGenericAtomicOpsI15QBasicAtomicOpsILi4EEE4loadIiEET_RKS4_
FNF:1
FNH:1
DA:90,91
LF:1
LH:1
end_of_record
SF:/Users/gorankostadinov/Qt/5.5/clang_64/lib/QtCore.framework/Headers/qglobal.h
FN:829,_Z5qSwapIP15QTypedArrayDataItEEvRT_S4_
FNDA:14,_Z5qSwapIP15QTypedArrayDataItEEvRT_S4_
FNF:1
FNH:1
DA:833,14
DA:834,14
LF:2
LH:2
end_of_record
SF:/Users/gorankostadinov/Qt/5.5/clang_64/lib/QtCore.framework/Headers/qrefcount.h
FN:59,_ZN9QtPrivate8RefCount5derefEv
FNDA:91,_ZN9QtPrivate8RefCount5derefEv
FNF:1
FNH:1
DA:60,91
DA:62,91
DA:63,0
DA:65,91
DA:66,7
DA:67,84
DA:68,91
LF:7
LH:6
end_of_record
SF:/Users/gorankostadinov/Qt/5.5/clang_64/lib/QtCore.framework/Headers/qsize.h
FN:105,_ZN5QSizeC1Eii
FN:105,_ZN5QSizeC2Eii
FNDA:14,_ZN5QSizeC1Eii
FNDA:14,_ZN5QSizeC2Eii
FNF:2
FNH:2
DA:105,28
LF:1
LH:1
end_of_record
SF:/Users/gorankostadinov/Qt/5.5/clang_64/lib/QtCore.framework/Headers/qstring.h
FN:225,_ZN7QStringaSEOS_
FN:649,_ZN7QStringC1EPKc
FN:649,_ZN7QStringC2EPKc
FN:1052,_ZN7QStringC1Ev
FN:1052,_ZN7QStringC2Ev
FN:1053,_ZN7QStringD2Ev
FN:1053,_ZN7QStringD1Ev
FNDA:14,_ZN7QStringaSEOS_
FNDA:42,_ZN7QStringC1EPKc
FNDA:42,_ZN7QStringC2EPKc
FNDA:7,_ZN7QStringC1Ev
FNDA:7,_ZN7QStringC2Ev
FNDA:91,_ZN7QStringD1Ev
FNDA:91,_ZN7QStringD2Ev
FNF:7
FNH:7
DA:226,14
DA:650,126
DA:651,126
DA:1052,14
DA:1053,315
LF:5
LH:5
end_of_record
SF:/Users/gorankostadinov/Qt/5.5/clang_64/lib/QtWidgets.framework/Headers/qwidget.h
FN:824,_ZN7QWidget6resizeEii
FNDA:14,_ZN7QWidget6resizeEii
FNF:1
FNH:1
DA:825,14
LF:1
LH:1
end_of_record
SF:/Users/gorankostadinov/Workspace/Qt/RightwareDemo/libmain/libmain.cpp
FN:39,__cxx_global_var_init
FN:45,_Z9qapp_execv
FN:55,_Z7libmainiPPcPFivE
FNDA:7,__cxx_global_var_init
FNDA:0,_Z9qapp_execv
FNDA:14,_Z7libmainiPPcPFivE
FNF:3
FNH:2
DA:39,7
DA:47,0
DA:57,14
DA:59,28
DA:61,14
DA:65,14
DA:66,14
DA:67,14
DA:69,14
DA:70,14
DA:71,14
DA:74,42
DA:75,42
DA:76,42
DA:77,42
DA:78,14
DA:84,42
DA:86,56
DA:89,42
DA:90,14
DA:91,42
DA:92,14
DA:93,14
DA:96,14
DA:100,14
DA:101,0
DA:103,14
DA:106,28
DA:107,28
DA:109,14
DA:110,14
DA:122,14
LF:32
LH:30
end_of_record
TN:
SF:/Users/gorankostadinov/Qt/5.5/clang_64/lib/QtCore.framework/Headers/qarraydata.h
FN:116,_ZN10QArrayData10sharedNullEv
FN:219,_ZN15QTypedArrayDataItE10deallocateEP10QArrayData
FN:240,_ZN15QTypedArrayDataItE10sharedNullEv
FNDA:7,_ZN10QArrayData10sharedNullEv
FNDA:217,_ZN15QTypedArrayDataItE10deallocateEP10QArrayData
FNDA:7,_ZN15QTypedArrayDataItE10sharedNullEv
FNF:3
FNH:3
DA:116,7
DA:222,217
DA:223,217
DA:243,7
LF:4
LH:4
end_of_record
SF:/Users/gorankostadinov/Qt/5.5/clang_64/lib/QtCore.framework/Headers/qatomic_x86.h
FN:173,_ZN15QBasicAtomicOpsILi4EE3refIiEEbRT_
FN:211,_ZN15QBasicAtomicOpsILi4EE5derefIiEEbRT_
FNDA:63,_ZN15QBasicAtomicOpsILi4EE3refIiEEbRT_
FNDA:245,_ZN15QBasicAtomicOpsILi4EE5derefIiEEbRT_
FNF:2
FNH:2
DA:176,63
DA:182,63
DA:214,245
DA:220,245
LF:4
LH:4
end_of_record
SF:/Users/gorankostadinov/Qt/5.5/clang_64/lib/QtCore.framework/Headers/qbasicatomic.h
FN:118,_ZNK19QBasicAtomicIntegerIiE4loadEv
FN:129,_ZN19QBasicAtomicIntegerIiE3refEv
FN:130,_ZN19QBasicAtomicIntegerIiE5derefEv
FNDA:308,_ZNK19QBasicAtomicIntegerIiE4loadEv
FNDA:63,_ZN19QBasicAtomicIntegerIiE3refEv
FNDA:245,_ZN19QBasicAtomicIntegerIiE5derefEv
FNF:3
FNH:3
DA:118,308
DA:129,63
DA:130,245
LF:3
LH:3
end_of_record
SF:/Users/gorankostadinov/Qt/5.5/clang_64/lib/QtCore.framework/Headers/qcoreapplication.h
FN:110,_ZN16QCoreApplication8instanceEv
FNDA:14,_ZN16QCoreApplication8instanceEv
FNF:1
FNH:1
DA:110,14
LF:1
LH:1
end_of_record
SF:/Users/gorankostadinov/Qt/5.5/clang_64/lib/QtCore.framework/Headers/qgenericatomic.h
FN:88,_ZN17QGenericAtomicOpsI15QBasicAtomicOpsILi4EEE4loadIiEET_RKS4_
FNDA:308,_ZN17QGenericAtomicOpsI15QBasicAtomicOpsILi4EEE4loadIiEET_RKS4_
FNF:1
FNH:1
DA:90,308
LF:1
LH:1
end_of_record
SF:/Users/gorankostadinov/Qt/5.5/clang_64/lib/QtCore.framework/Headers/qlist.h
FN:460,_ZN5QListI7QStringE13node_destructEPNS1_4NodeES3_
FN:793,_ZN5QListI7QStringED2Ev
FN:832,_ZN5QListI7QStringE7deallocEPN9QListData4DataE
FNDA:14,_ZN5QListI7QStringE13node_destructEPNS1_4NodeES3_
FNDA:14,_ZN5QListI7QStringED2Ev
FNDA:14,_ZN5QListI7QStringE7deallocEPN9QListData4DataE
FNF:3
FNH:3
DA:465,140
DA:466,14
DA:795,14
DA:796,14
DA:797,14
DA:834,14
DA:836,14
DA:837,14
LF:8
LH:8
end_of_record
SF:/Users/gorankostadinov/Qt/5.5/clang_64/lib/QtCore.framework/Headers/qrefcount.h
FN:48,_ZN9QtPrivate8RefCount3refEv
FN:59,_ZN9QtPrivate8RefCount5derefEv
FNDA:63,_ZN9QtPrivate8RefCount3refEv
FNDA:245,_ZN9QtPrivate8RefCount5derefEv
FNF:2
FNH:2
DA:49,63
DA:51,63
DA:52,0
DA:54,63
DA:55,63
DA:56,63
DA:57,63
DA:60,245
DA:62,245
DA:63,0
DA:65,245
DA:66,0
DA:67,245
DA:68,245
LF:14
LH:11
end_of_record
SF:/Users/gorankostadinov/Qt/5.5/clang_64/lib/QtCore.framework/Headers/qstring.h
FN:442,_ZN7QStringpLERKS_
FN:528,_ZN7QString8fromUtf8EPKci
FN:649,_ZN7QStringC2EPKc
FN:649,_ZN7QStringC1EPKc
FN:877,_ZN7QStringC2ERKS_
FN:877,_ZN7QStringC1ERKS_
FN:1052,_ZN7QStringC2Ev
FN:1052,_ZN7QStringC1Ev
FN:1053,_ZN7QStringD1Ev
FN:1053,_ZN7QStringD2Ev
FN:1260,_ZplRK7QStringS1_
FN:1267,_ZplRK7QStringPKc
FNDA:63,_ZN7QStringpLERKS_
FNDA:49,_ZN7QString8fromUtf8EPKci
FNDA:77,_ZN7QStringC1EPKc
FNDA:77,_ZN7QStringC2EPKc
FNDA:63,_ZN7QStringC1ERKS_
FNDA:63,_ZN7QStringC2ERKS_
FNDA:7,_ZN7QStringC1Ev
FNDA:7,_ZN7QStringC2Ev
FNDA:231,_ZN7QStringD1Ev
FNDA:231,_ZN7QStringD2Ev
FNDA:14,_ZplRK7QStringS1_
FNDA:49,_ZplRK7QStringPKc
FNF:12
FNH:12
DA:442,63
DA:530,147
DA:650,231
DA:651,231
DA:878,126
DA:1052,14
DA:1053,910
DA:1261,42
DA:1268,196
LF:9
LH:9
end_of_record
SF:/Users/gorankostadinov/Qt/5.5/clang_64/lib/QtCore.framework/Headers/qstringlist.h
FN:62,_ZN19QListSpecialMethodsI7QStringED2Ev
FN:93,_ZN11QStringListD2Ev
FN:93,_ZN11QStringListD1Ev
FNDA:14,_ZN19QListSpecialMethodsI7QStringED2Ev
FNDA:14,_ZN11QStringListD1Ev
FNDA:14,_ZN11QStringListD2Ev
FNF:3
FNH:3
DA:62,14
DA:93,28
LF:2
LH:2
end_of_record
SF:/Users/gorankostadinov/Workspace/Qt/RightwareDemo/test/fpstest.h
FN:14,_ZN7FPSTestD2Ev
FN:14,_ZN7FPSTestD1Ev
FNDA:7,_ZN7FPSTestD1Ev
FNDA:7,_ZN7FPSTestD2Ev
FNF:2
FNH:2
DA:14,14
LF:1
LH:1
end_of_record
SF:/Users/gorankostadinov/Workspace/Qt/RightwareDemo/test/main.cpp
FN:16,main
FN:20,_ZZ4mainENK3$_0cvPFivEEv
FN:20,_ZZ4mainENK3$_0clEv
FN:20,_ZZ4mainEN3$_08__invokeEv
FN:53,_ZZ4mainEN3$_18__invokeEv
FN:53,_ZZ4mainENK3$_1clEv
FN:53,_ZZ4mainENK3$_1cvPFivEEv
FNDA:7,main
FNDA:7,_ZZ4mainENK3$_0cvPFivEEv
FNDA:7,_ZZ4mainEN3$_08__invokeEv
FNDA:7,_ZZ4mainENK3$_0clEv
FNDA:7,_ZZ4mainENK3$_1cvPFivEEv
FNDA:7,_ZZ4mainEN3$_18__invokeEv
FNDA:7,_ZZ4mainENK3$_1clEv
FNF:7
FNH:7
DA:20,21
DA:21,7
DA:22,21
DA:23,7
DA:30,7
DA:31,21
DA:34,56
DA:36,28
DA:37,84
DA:38,7
DA:39,21
DA:41,7
DA:42,7
DA:44,49
DA:47,7
DA:48,49
DA:53,21
DA:54,7
DA:55,21
DA:56,7
DA:57,7
DA:58,7
DA:61,7
DA:62,49
DA:64,7
DA:65,7
LF:26
LH:26
end_of_record
SF:/Users/gorankostadinov/Workspace/Qt/RightwareDemo/test/startuptimetest.h
FN:14,_ZN15StartupTimeTestD1Ev
FN:14,_ZN15StartupTimeTestD2Ev
FNDA:7,_ZN15StartupTimeTestD1Ev
FNDA:7,_ZN15StartupTimeTestD2Ev
FNF:2
FNH:2
DA:14,14
LF:1
LH:1
end_of_record
TN:
SF:/Users/gorankostadinov/Qt/5.5/clang_64/lib/QtCore.framework/Headers/qscopedpointer.h
FN:110,_ZNK14QScopedPointerI11QObjectData21QScopedPointerDeleterIS0_EEptEv
FNDA:0,_ZNK14QScopedPointerI11QObjectData21QScopedPointerDeleterIS0_EEptEv
FNF:1
FNH:0
DA:113,0
LF:1
LH:0
end_of_record
SF:/Users/gorankostadinov/Workspace/Qt/RightwareDemo/libmain/controler.h
FN:27,_ZThn16_N9Controler6getFPSEv
FN:28,_ZThn16_N9Controler14getStartupTimeEv
FN:29,_ZThn16_N9Controler17get_GeometryCountEv
FNDA:0,_ZThn16_N9Controler6getFPSEv
FNDA:0,_ZThn16_N9Controler14getStartupTimeEv
FNDA:0,_ZThn16_N9Controler17get_GeometryCountEv
FNF:3
FNH:0
DA:90,0
LF:1
LH:0
end_of_record
SF:/Users/gorankostadinov/Workspace/Qt/RightwareDemo/Binaries/Release/test/moc_controler.cpp
FN:55,_ZN9Controler18qt_static_metacallEP7QObjectN11QMetaObject4CallEiPPv
FN:69,_ZNK9Controler10metaObjectEv
FN:74,_ZN9Controler11qt_metacastEPKc
FN:84,_ZN9Controler11qt_metacallEN11QMetaObject4CallEiPPv
FNDA:0,_ZN9Controler18qt_static_metacallEP7QObjectN11QMetaObject4CallEiPPv
FNDA:0,_ZNK9Controler10metaObjectEv
FNDA:0,_ZN9Controler11qt_metacastEPKc
FNDA:0,_ZN9Controler11qt_metacallEN11QMetaObject4CallEiPPv
FNF:4
FNH:0
DA:61,0
DA:71,0
DA:76,0
DA:77,0
DA:78,0
DA:79,0
DA:80,0
DA:81,0
DA:82,0
DA:86,0
DA:90,0
LF:11
LH:0
end_of_record
TN:
SF:/Users/gorankostadinov/Qt/5.5/clang_64/lib/QtCore.framework/Headers/qscopedpointer.h
FN:110,_ZNK14QScopedPointerI11QObjectData21QScopedPointerDeleterIS0_EEptEv
FNDA:126,_ZNK14QScopedPointerI11QObjectData21QScopedPointerDeleterIS0_EEptEv
FNF:1
FNH:1
DA:113,126
LF:1
LH:1
end_of_record
SF:/Users/gorankostadinov/Workspace/Qt/RightwareDemo/test/fpstest.h
FN:14,_ZN7FPSTestD0Ev
FN:14,_ZN7FPSTestD2Ev
FN:14,_ZN7FPSTestD1Ev
FNDA:0,_ZN7FPSTestD0Ev
FNDA:0,_ZN7FPSTestD1Ev
FNDA:0,_ZN7FPSTestD2Ev
FNF:3
FNH:0
DA:14,0
LF:1
LH:0
end_of_record
SF:/Users/gorankostadinov/Workspace/Qt/RightwareDemo/Binaries/Release/test/moc_fpstest.cpp
FN:79,_ZN7FPSTest18qt_static_metacallEP7QObjectN11QMetaObject4CallEiPPv
FN:103,_ZNK7FPSTest10metaObjectEv
FN:108,_ZN7FPSTest11qt_metacastEPKc
FN:116,_ZN7FPSTest11qt_metacallEN11QMetaObject4CallEiPPv
FNDA:105,_ZN7FPSTest18qt_static_metacallEP7QObjectN11QMetaObject4CallEiPPv
FNDA:126,_ZNK7FPSTest10metaObjectEv
FNDA:0,_ZN7FPSTest11qt_metacastEPKc
FNDA:0,_ZN7FPSTest11qt_metacallEN11QMetaObject4CallEiPPv
FNF:4
FNH:2
DA:81,105
DA:82,210
DA:84,210
DA:85,7
DA:86,7
DA:87,28
DA:88,28
DA:89,28
DA:90,7
DA:95,105
DA:105,252
DA:110,0
DA:111,0
DA:112,0
DA:113,0
DA:114,0
DA:118,0
DA:119,0
DA:120,0
DA:121,0
DA:122,0
DA:123,0
DA:124,0
DA:125,0
DA:126,0
DA:127,0
DA:128,0
DA:129,0
DA:130,0
DA:131,0
LF:30
LH:11
end_of_record
TN:
SF:/Users/gorankostadinov/Qt/5.5/clang_64/lib/QtCore.framework/Headers/qscopedpointer.h
FN:110,_ZNK14QScopedPointerI11QObjectData21QScopedPointerDeleterIS0_EEptEv
FNDA:5225,_ZNK14QScopedPointerI11QObjectData21QScopedPointerDeleterIS0_EEptEv
FNF:1
FNH:1
DA:113,5225
LF:1
LH:1
end_of_record
SF:/Users/gorankostadinov/Workspace/Qt/RightwareDemo/libmain/helper_profiling.h
FN:20,_ZN16Helper_ProfilingD2Ev
FN:20,_ZN16Helper_ProfilingD0Ev
FN:20,_ZN16Helper_ProfilingD1Ev
FNDA:0,_ZN16Helper_ProfilingD0Ev
FNDA:0,_ZN16Helper_ProfilingD1Ev
FNDA:0,_ZN16Helper_ProfilingD2Ev
FNF:3
FNH:0
DA:20,0
LF:1
LH:0
end_of_record
SF:/Users/gorankostadinov/Workspace/Qt/RightwareDemo/Binaries/Release/test/moc_helper_profiling.cpp
FN:74,_ZN16Helper_Profiling18qt_static_metacallEP7QObjectN11QMetaObject4CallEiPPv
FN:109,_ZNK16Helper_Profiling10metaObjectEv
FN:114,_ZN16Helper_Profiling11qt_metacastEPKc
FN:122,_ZN16Helper_Profiling11qt_metacallEN11QMetaObject4CallEiPPv
FN:140,_ZN16Helper_Profiling12startupEventEx
FN:147,_ZN16Helper_Profiling14frequencyEventEf
FNDA:5141,_ZN16Helper_Profiling18qt_static_metacallEP7QObjectN11QMetaObject4CallEiPPv
FNDA:5225,_ZNK16Helper_Profiling10metaObjectEv
FNDA:0,_ZN16Helper_Profiling11qt_metacastEPKc
FNDA:0,_ZN16Helper_Profiling11qt_metacallEN11QMetaObject4CallEiPPv
FNDA:14,_ZN16Helper_Profiling12startupEventEx
FNDA:82,_ZN16Helper_Profiling14frequencyEventEf
FNF:6
FNH:4
DA:76,5141
DA:77,10282
DA:79,10282
DA:80,0
DA:81,0
DA:82,5141
DA:85,0
DA:86,0
DA:87,0
DA:90,0
DA:91,0
DA:92,0
DA:96,0
DA:97,0
DA:98,0
DA:101,5141
DA:111,10450
DA:116,0
DA:117,0
DA:118,0
DA:119,0
DA:120,0
DA:124,0
DA:125,0
DA:126,0
DA:127,0
DA:128,0
DA:129,0
DA:130,0
DA:131,0
DA:132,0
DA:133,0
DA:134,0
DA:135,0
DA:136,0
DA:137,0
DA:142,14
DA:143,14
DA:144,14
DA:149,82
DA:150,82
DA:151,82
LF:42
LH:12
end_of_record
TN:
SF:/Users/gorankostadinov/Qt/5.5/clang_64/lib/QtCore.framework/Headers/qscopedpointer.h
FN:110,_ZNK14QScopedPointerI11QObjectData21QScopedPointerDeleterIS0_EEptEv
FNDA:453,_ZNK14QScopedPointerI11QObjectData21QScopedPointerDeleterIS0_EEptEv
FNF:1
FNH:1
DA:113,453
LF:1
LH:1
end_of_record
SF:/Users/gorankostadinov/Workspace/Qt/RightwareDemo/libmain/model.h
FN:16,_ZN5ModelD0Ev
FN:16,_ZN5ModelD2Ev
FN:16,_ZN5ModelD1Ev
FNDA:14,_ZN5ModelD0Ev
FNDA:14,_ZN5ModelD1Ev
FNDA:14,_ZN5ModelD2Ev
FNF:3
FNH:3
DA:16,42
LF:1
LH:1
end_of_record
SF:/Users/gorankostadinov/Workspace/Qt/RightwareDemo/Binaries/Release/test/moc_model.cpp
FN:94,_ZN5Model18qt_static_metacallEP7QObjectN11QMetaObject4CallEiPPv
FN:146,_ZNK5Model10metaObjectEv
FN:151,_ZN5Model11qt_metacastEPKc
FN:159,_ZN5Model11qt_metacallEN11QMetaObject4CallEiPPv
FN:177,_ZN5Model10fpsChangedEf
FN:184,_ZN5Model18startupTimeChangedEx
FN:191,_ZN5Model13geometryAddedEv
FN:197,_ZN5Model15geometryRemovedEv
FNDA:229,_ZN5Model18qt_static_metacallEP7QObjectN11QMetaObject4CallEiPPv
FNDA:453,_ZNK5Model10metaObjectEv
FNDA:0,_ZN5Model11qt_metacastEPKc
FNDA:0,_ZN5Model11qt_metacallEN11QMetaObject4CallEiPPv
FNDA:82,_ZN5Model10fpsChangedEf
FNDA:14,_ZN5Model18startupTimeChangedEx
FNDA:70,_ZN5Model13geometryAddedEv
FNDA:63,_ZN5Model15geometryRemovedEv
FNF:8
FNH:6
DA:96,229
DA:97,458
DA:99,458
DA:100,0
DA:101,0
DA:102,0
DA:103,0
DA:104,82
DA:105,14
DA:106,70
DA:107,63
DA:110,0
DA:111,0
DA:112,0
DA:115,0
DA:116,0
DA:117,0
DA:121,0
DA:122,0
DA:123,0
DA:127,0
DA:128,0
DA:129,0
DA:133,0
DA:134,0
DA:135,0
DA:138,229
DA:148,906
DA:153,0
DA:154,0
DA:155,0
DA:156,0
DA:157,0
DA:161,0
DA:162,0
DA:163,0
DA:164,0
DA:165,0
DA:166,0
DA:167,0
DA:168,0
DA:169,0
DA:170,0
DA:171,0
DA:172,0
DA:173,0
DA:174,0
DA:179,82
DA:180,82
DA:181,82
DA:186,14
DA:187,14
DA:188,14
DA:193,70
DA:194,70
DA:199,63
DA:200,63
LF:57
LH:19
end_of_record
TN:
SF:/Users/gorankostadinov/Qt/5.5/clang_64/lib/QtCore.framework/Headers/qscopedpointer.h
FN:110,_ZNK14QScopedPointerI11QObjectData21QScopedPointerDeleterIS0_EEptEv
FNDA:63,_ZNK14QScopedPointerI11QObjectData21QScopedPointerDeleterIS0_EEptEv
FNF:1
FNH:1
DA:113,63
LF:1
LH:1
end_of_record
SF:/Users/gorankostadinov/Workspace/Qt/RightwareDemo/test/startuptimetest.h
FN:14,_ZN15StartupTimeTestD1Ev
FN:14,_ZN15StartupTimeTestD0Ev
FN:14,_ZN15StartupTimeTestD2Ev
FNDA:0,_ZN15StartupTimeTestD0Ev
FNDA:0,_ZN15StartupTimeTestD1Ev
FNDA:0,_ZN15StartupTimeTestD2Ev
FNF:3
FNH:0
DA:14,0
LF:1
LH:0
end_of_record
SF:/Users/gorankostadinov/Workspace/Qt/RightwareDemo/Binaries/Release/test/moc_startuptimetest.cpp
FN:76,_ZN15StartupTimeTest18qt_static_metacallEP7QObjectN11QMetaObject4CallEiPPv
FN:99,_ZNK15StartupTimeTest10metaObjectEv
FN:104,_ZN15StartupTimeTest11qt_metacastEPKc
FN:112,_ZN15StartupTimeTest11qt_metacallEN11QMetaObject4CallEiPPv
FNDA:35,_ZN15StartupTimeTest18qt_static_metacallEP7QObjectN11QMetaObject4CallEiPPv
FNDA:63,_ZNK15StartupTimeTest10metaObjectEv
FNDA:0,_ZN15StartupTimeTest11qt_metacastEPKc
FNDA:0,_ZN15StartupTimeTest11qt_metacallEN11QMetaObject4CallEiPPv
FNF:4
FNH:2
DA:78,35
DA:79,70
DA:81,70
DA:82,7
DA:83,7
DA:84,7
DA:85,7
DA:86,7
DA:91,35
DA:101,126
DA:106,0
DA:107,0
DA:108,0
DA:109,0
DA:110,0
DA:114,0
DA:115,0
DA:116,0
DA:117,0
DA:118,0
DA:119,0
DA:120,0
DA:121,0
DA:122,0
DA:123,0
DA:124,0
DA:125,0
DA:126,0
DA:127,0
LF:29
LH:10
end_of_record
TN:
SF:/Users/gorankostadinov/Qt/5.5/clang_64/lib/QtCore.framework/Headers/qscopedpointer.h
FN:110,_ZNK14QScopedPointerI11QObjectData21QScopedPointerDeleterIS0_EEptEv
FNDA:196,_ZNK14QScopedPointerI11QObjectData21QScopedPointerDeleterIS0_EEptEv
FNF:1
FNH:1
DA:113,196
LF:1
LH:1
end_of_record
SF:/Users/gorankostadinov/Qt/5.5/clang_64/lib/QtWidgets.framework/Headers/qopenglwidget.h
FN:94,_ZThn16_NK13QOpenGLWidget6metricEN12QPaintDevice17PaintDeviceMetricE
FN:95,_ZThn16_NK13QOpenGLWidget10redirectedEP6QPoint
FN:96,_ZThn16_NK13QOpenGLWidget11paintEngineEv
FNDA:0,_ZThn16_NK13QOpenGLWidget6metricEN12QPaintDevice17PaintDeviceMetricE
FNDA:0,_ZThn16_NK13QOpenGLWidget10redirectedEP6QPoint
FNDA:0,_ZThn16_NK13QOpenGLWidget11paintEngineEv
FNF:3
FNH:0
DA:127,0
LF:1
LH:0
end_of_record
SF:/Users/gorankostadinov/Qt/5.5/clang_64/lib/QtWidgets.framework/Headers/qwidget.h
FN:127,_ZThn16_NK7QWidget13sharedPainterEv
FN:127,_ZThn16_NK7QWidget11initPainterEP8QPainter
FN:127,_ZThn16_NK7QWidget7devTypeEv
FNDA:0,_ZThn16_NK7QWidget7devTypeEv
FNDA:0,_ZThn16_NK7QWidget11initPainterEP8QPainter
FNDA:0,_ZThn16_NK7QWidget13sharedPainterEv
FNF:3
FNH:0
DA:127,0
LF:1
LH:0
end_of_record
SF:/Users/gorankostadinov/Workspace/Qt/RightwareDemo/libmain/view_mainwidget.h
FN:75,_ZThn16_N15View_MainWidgetD0Ev
FN:75,_ZThn16_N15View_MainWidgetD1Ev
FNDA:0,_ZThn16_N15View_MainWidgetD1Ev
FNDA:0,_ZThn16_N15View_MainWidgetD0Ev
FNF:2
FNH:0
DA:127,0
LF:1
LH:0
end_of_record
SF:/Users/gorankostadinov/Workspace/Qt/RightwareDemo/Binaries/Release/test/moc_view_mainwidget.cpp
FN:63,_ZN15View_MainWidget18qt_static_metacallEP7QObjectN11QMetaObject4CallEiPPv
FN:91,_ZNK15View_MainWidget10metaObjectEv
FN:96,_ZN15View_MainWidget11qt_metacastEPKc
FN:106,_ZN15View_MainWidget11qt_metacallEN11QMetaObject4CallEiPPv
FN:124,_ZN15View_MainWidget10updateDoneEv
FNDA:0,_ZN15View_MainWidget18qt_static_metacallEP7QObjectN11QMetaObject4CallEiPPv
FNDA:196,_ZNK15View_MainWidget10metaObjectEv
FNDA:476,_ZN15View_MainWidget11qt_metacastEPKc
FNDA:0,_ZN15View_MainWidget11qt_metacallEN11QMetaObject4CallEiPPv
FNDA:5141,_ZN15View_MainWidget10updateDoneEv
FNF:5
FNH:3
DA:65,0
DA:66,0
DA:68,0
DA:69,0
DA:72,0
DA:73,0
DA:74,0
DA:77,0
DA:78,0
DA:79,0
DA:83,0
DA:93,392
DA:98,476
DA:99,476
DA:100,0
DA:101,476
DA:102,0
DA:103,476
DA:104,476
DA:108,0
DA:109,0
DA:110,0
DA:111,0
DA:112,0
DA:113,0
DA:114,0
DA:115,0
DA:116,0
DA:117,0
DA:118,0
DA:119,0
DA:120,0
DA:121,0
DA:126,5141
DA:127,5141
LF:35
LH:8
end_of_record
TN:
SF:/Users/gorankostadinov/Qt/5.5/clang_64/lib/QtCore.framework/Headers/qscopedpointer.h
FN:110,_ZNK14QScopedPointerI11QObjectData21QScopedPointerDeleterIS0_EEptEv
FNDA:6711,_ZNK14QScopedPointerI11QObjectData21QScopedPointerDeleterIS0_EEptEv
FNF:1
FNH:1
DA:113,6711
LF:1
LH:1
end_of_record
SF:/Users/gorankostadinov/Qt/5.5/clang_64/lib/QtWidgets.framework/Headers/qwidget.h
FN:203,_ZThn16_NK7QWidget6metricEN12QPaintDevice17PaintDeviceMetricE
FN:203,_ZThn16_NK7QWidget13sharedPainterEv
FN:203,_ZThn16_NK7QWidget11paintEngineEv
FN:203,_ZThn16_NK7QWidget7devTypeEv
FN:203,_ZThn16_NK7QWidget11initPainterEP8QPainter
FN:203,_ZThn16_NK7QWidget10redirectedEP6QPoint
FNDA:0,_ZThn16_NK7QWidget7devTypeEv
FNDA:0,_ZThn16_NK7QWidget11paintEngineEv
FNDA:0,_ZThn16_NK7QWidget6metricEN12QPaintDevice17PaintDeviceMetricE
FNDA:0,_ZThn16_NK7QWidget11initPainterEP8QPainter
FNDA:0,_ZThn16_NK7QWidget10redirectedEP6QPoint
FNDA:0,_ZThn16_NK7QWidget13sharedPainterEv
FNF:6
FNH:0
DA:203,0
LF:1
LH:0
end_of_record
SF:/Users/gorankostadinov/Workspace/Qt/RightwareDemo/libmain/view_mainwindow.h
FN:24,_ZThn16_N15View_MainWindowD0Ev
FN:24,_ZThn16_N15View_MainWindowD1Ev
FN:25,_ZN15View_MainWindow12setControlerEP10IControler
FN:25,_ZThn208_N15View_MainWindow12setControlerEP10IControler
FN:51,_ZThn208_N15View_MainWindow10fpsChangedEf
FN:52,_ZThn208_N15View_MainWindow18startupTimeChangedEx
FN:53,_ZThn208_N15View_MainWindow13geometryAddedEv
FN:54,_ZThn208_N15View_MainWindow15geometryRemovedEv
FNDA:0,_ZThn16_N15View_MainWindowD1Ev
FNDA:0,_ZThn16_N15View_MainWindowD0Ev
FNDA:14,_ZThn208_N15View_MainWindow12setControlerEP10IControler
FNDA:14,_ZN15View_MainWindow12setControlerEP10IControler
FNDA:0,_ZThn208_N15View_MainWindow10fpsChangedEf
FNDA:0,_ZThn208_N15View_MainWindow18startupTimeChangedEx
FNDA:0,_ZThn208_N15View_MainWindow13geometryAddedEv
FNDA:0,_ZThn208_N15View_MainWindow15geometryRemovedEv
FNF:8
FNH:2
DA:25,14
DA:203,14
LF:2
LH:2
end_of_record
SF:/Users/gorankostadinov/Workspace/Qt/RightwareDemo/Binaries/Release/test/moc_view_mainwindow.cpp
FN:104,_ZN15View_MainWindow18qt_static_metacallEP7QObjectN11QMetaObject4CallEiPPv
FN:153,_ZNK15View_MainWindow10metaObjectEv
FN:158,_ZN15View_MainWindow11qt_metacastEPKc
FN:170,_ZN15View_MainWindow11qt_metacallEN11QMetaObject4CallEiPPv
FN:188,_ZThn208_N15View_MainWindow11addGeometryEv
FN:188,_ZN15View_MainWindow11addGeometryEv
FN:194,_ZN15View_MainWindow14removeGeometryEv
FN:194,_ZThn208_N15View_MainWindow14removeGeometryEv
FN:200,_ZN15View_MainWindow17graphicUpdateDoneEv
FN:200,_ZThn208_N15View_MainWindow17graphicUpdateDoneEv
FNDA:5384,_ZN15View_MainWindow18qt_static_metacallEP7QObjectN11QMetaObject4CallEiPPv
FNDA:6711,_ZNK15View_MainWindow10metaObjectEv
FNDA:476,_ZN15View_MainWindow11qt_metacastEPKc
FNDA:0,_ZN15View_MainWindow11qt_metacallEN11QMetaObject4CallEiPPv
FNDA:70,_ZN15View_MainWindow11addGeometryEv
FNDA:0,_ZThn208_N15View_MainWindow11addGeometryEv
FNDA:63,_ZN15View_MainWindow14removeGeometryEv
FNDA:0,_ZThn208_N15View_MainWindow14removeGeometryEv
FNDA:5141,_ZN15View_MainWindow17graphicUpdateDoneEv
FNDA:0,_ZThn208_N15View_MainWindow17graphicUpdateDoneEv
FNF:10
FNH:6
DA:106,5384
DA:107,10768
DA:109,10768
DA:110,0
DA:111,0
DA:112,0
DA:113,5141
DA:114,14
DA:115,0
DA:116,0
DA:117,82
DA:118,14
DA:119,70
DA:120,63
DA:123,0
DA:124,0
DA:125,0
DA:128,0
DA:129,0
DA:130,0
DA:134,0
DA:135,0
DA:136,0
DA:140,0
DA:141,0
DA:142,0
DA:145,5384
DA:155,13422
DA:160,476
DA:161,476
DA:162,0
DA:163,476
DA:164,0
DA:165,476
DA:166,0
DA:167,476
DA:168,476
DA:172,0
DA:173,0
DA:174,0
DA:175,0
DA:176,0
DA:177,0
DA:178,0
DA:179,0
DA:180,0
DA:181,0
DA:182,0
DA:183,0
DA:184,0
DA:185,0
DA:190,70
DA:191,70
DA:196,63
DA:197,63
DA:202,5141
DA:203,5141
LF:57
LH:23
end_of_record
TN:
SF:/Users/gorankostadinov/Qt/5.5/clang_64/lib/QtCore.framework/Headers/qscopedpointer.h
FN:110,_ZNK14QScopedPointerI11QObjectData21QScopedPointerDeleterIS0_EEptEv
FNDA:5141,_ZNK14QScopedPointerI11QObjectData21QScopedPointerDeleterIS0_EEptEv
FNF:1
FNH:1
DA:113,5141
LF:1
LH:1
end_of_record
SF:/Users/gorankostadinov/Workspace/Qt/RightwareDemo/test/waitforupdatedone.h
FN:15,_ZN17WaitForUpdateDoneD0Ev
FN:15,_ZN17WaitForUpdateDoneD2Ev
FN:15,_ZN17WaitForUpdateDoneD1Ev
FNDA:0,_ZN17WaitForUpdateDoneD0Ev
FNDA:0,_ZN17WaitForUpdateDoneD1Ev
FNDA:0,_ZN17WaitForUpdateDoneD2Ev
FNF:3
FNH:0
DA:15,0
LF:1
LH:0
end_of_record
SF:/Users/gorankostadinov/Workspace/Qt/RightwareDemo/Binaries/Release/test/moc_waitforupdatedone.cpp
FN:64,_ZN17WaitForUpdateDone18qt_static_metacallEP7QObjectN11QMetaObject4CallEiPPv
FN:83,_ZNK17WaitForUpdateDone10metaObjectEv
FN:88,_ZN17WaitForUpdateDone11qt_metacastEPKc
FN:96,_ZN17WaitForUpdateDone11qt_metacallEN11QMetaObject4CallEiPPv
FNDA:5113,_ZN17WaitForUpdateDone18qt_static_metacallEP7QObjectN11QMetaObject4CallEiPPv
FNDA:5141,_ZNK17WaitForUpdateDone10metaObjectEv
FNDA:0,_ZN17WaitForUpdateDone11qt_metacastEPKc
FNDA:0,_ZN17WaitForUpdateDone11qt_metacallEN11QMetaObject4CallEiPPv
FNF:4
FNH:2
DA:66,5113
DA:67,5113
DA:69,5113
DA:70,5113
DA:75,5113
DA:85,10282
DA:90,0
DA:91,0
DA:92,0
DA:93,0
DA:94,0
DA:98,0
DA:99,0
DA:100,0
DA:101,0
DA:102,0
DA:103,0
DA:104,0
DA:105,0
DA:106,0
DA:107,0
DA:108,0
DA:109,0
DA:110,0
DA:111,0
LF:25
LH:6
end_of_record
TN:
SF:/Users/gorankostadinov/Workspace/Qt/RightwareDemo/libmain/model.cpp
FN:12,_ZN5Model11CreateModelEP7QObject
FN:17,_ZN5ModelC2EP7QObject
FN:17,_ZN5ModelC1EP7QObject
FN:24,_ZN5Model6setFPSEf
FN:33,_ZN5Model14setStartupTimeEx
FN:42,_ZN5Model11addGeometryEv
FN:48,_ZN5Model14removeGeometryEv
FNDA:14,_ZN5Model11CreateModelEP7QObject
FNDA:14,_ZN5ModelC2EP7QObject
FNDA:14,_ZN5ModelC1EP7QObject
FNDA:82,_ZN5Model6setFPSEf
FNDA:14,_ZN5Model14setStartupTimeEx
FNDA:70,_ZN5Model11addGeometryEv
FNDA:63,_ZN5Model14removeGeometryEv
FNF:7
FNH:7
DA:14,28
DA:15,0
DA:22,28
DA:26,82
DA:28,82
DA:29,82
DA:30,82
DA:31,82
DA:35,14
DA:37,14
DA:38,14
DA:39,14
DA:40,14
DA:44,70
DA:45,70
DA:46,70
DA:50,63
DA:52,63
DA:53,63
DA:54,63
DA:55,63
LF:21
LH:20
end_of_record
TN:
SF:/Users/gorankostadinov/Workspace/Qt/RightwareDemo/Binaries/Release/test/qrc_icon.cpp
FN:385,_Z19qInitResources_iconv
FN:393,_Z22qCleanupResources_iconv
FN:402,_ZN12_GLOBAL__N_111initializerC2Ev
FN:402,_ZN12_GLOBAL__N_111initializerC1Ev
FN:403,_ZN12_GLOBAL__N_111initializerD2Ev
FN:403,_ZN12_GLOBAL__N_111initializerD1Ev
FN:404,__cxx_global_var_init
FNDA:21,_Z19qInitResources_iconv
FNDA:7,_Z22qCleanupResources_iconv
FNDA:7,_ZN12_GLOBAL__N_111initializerC1Ev
FNDA:7,_ZN12_GLOBAL__N_111initializerC2Ev
FNDA:7,_ZN12_GLOBAL__N_111initializerD1Ev
FNDA:7,_ZN12_GLOBAL__N_111initializerD2Ev
FNDA:7,__cxx_global_var_init
FNF:7
FNH:7
DA:387,21
DA:389,21
DA:395,7
DA:397,7
DA:402,14
DA:403,21
DA:404,7
LF:7
LH:7
end_of_record
TN:
SF:/Users/gorankostadinov/Workspace/Qt/RightwareDemo/Binaries/Release/test/qrc_shaders.cpp
FN:118,_Z22qInitResources_shadersv
FN:126,_Z25qCleanupResources_shadersv
FN:135,_ZN12_GLOBAL__N_111initializerC1Ev
FN:135,_ZN12_GLOBAL__N_111initializerC2Ev
FN:136,_ZN12_GLOBAL__N_111initializerD2Ev
FN:136,_ZN12_GLOBAL__N_111initializerD1Ev
FN:137,__cxx_global_var_init
FNDA:21,_Z22qInitResources_shadersv
FNDA:7,_Z25qCleanupResources_shadersv
FNDA:7,_ZN12_GLOBAL__N_111initializerC1Ev
FNDA:7,_ZN12_GLOBAL__N_111initializerC2Ev
FNDA:7,_ZN12_GLOBAL__N_111initializerD1Ev
FNDA:7,_ZN12_GLOBAL__N_111initializerD2Ev
FNDA:7,__cxx_global_var_init
FNF:7
FNH:7
DA:120,21
DA:122,21
DA:128,7
DA:130,7
DA:135,14
DA:136,21
DA:137,7
LF:7
LH:7
end_of_record
TN:
SF:/Users/gorankostadinov/Workspace/Qt/RightwareDemo/Binaries/Release/test/qrc_textures.cpp
FN:1922,_Z23qInitResources_texturesv
FN:1930,_Z26qCleanupResources_texturesv
FN:1939,_ZN12_GLOBAL__N_111initializerC2Ev
FN:1939,_ZN12_GLOBAL__N_111initializerC1Ev
FN:1940,_ZN12_GLOBAL__N_111initializerD2Ev
FN:1940,_ZN12_GLOBAL__N_111initializerD1Ev
FN:1941,__cxx_global_var_init
FNDA:21,_Z23qInitResources_texturesv
FNDA:7,_Z26qCleanupResources_texturesv
FNDA:7,_ZN12_GLOBAL__N_111initializerC1Ev
FNDA:7,_ZN12_GLOBAL__N_111initializerC2Ev
FNDA:7,_ZN12_GLOBAL__N_111initializerD1Ev
FNDA:7,_ZN12_GLOBAL__N_111initializerD2Ev
FNDA:7,__cxx_global_var_init
FNF:7
FNH:7
DA:1924,21
DA:1926,21
DA:1932,7
DA:1934,7
DA:1939,14
DA:1940,21
DA:1941,7
LF:7
LH:7
end_of_record
TN:
SF:/Users/gorankostadinov/Qt/5.5/clang_64/lib/QtCore.framework/Headers/qarraydata.h
FN:219,_ZN15QTypedArrayDataItE10deallocateEP10QArrayData
FNDA:21,_ZN15QTypedArrayDataItE10deallocateEP10QArrayData
FNF:1
FNH:1
DA:222,21
DA:223,21
LF:2
LH:2
end_of_record
SF:/Users/gorankostadinov/Qt/5.5/clang_64/lib/QtCore.framework/Headers/qatomic_x86.h
FN:211,_ZN15QBasicAtomicOpsILi4EE5derefIiEEbRT_
FNDA:21,_ZN15QBasicAtomicOpsILi4EE5derefIiEEbRT_
FNF:1
FNH:1
DA:214,21
DA:220,21
LF:2
LH:2
end_of_record
SF:/Users/gorankostadinov/Qt/5.5/clang_64/lib/QtCore.framework/Headers/qbasicatomic.h
FN:118,_ZNK19QBasicAtomicIntegerIiE4loadEv
FN:130,_ZN19QBasicAtomicIntegerIiE5derefEv
FNDA:21,_ZNK19QBasicAtomicIntegerIiE4loadEv
FNDA:21,_ZN19QBasicAtomicIntegerIiE5derefEv
FNF:2
FNH:2
DA:118,21
DA:130,21
LF:2
LH:2
end_of_record
SF:/Users/gorankostadinov/Qt/5.5/clang_64/lib/QtCore.framework/Headers/qgenericatomic.h
FN:88,_ZN17QGenericAtomicOpsI15QBasicAtomicOpsILi4EEE4loadIiEET_RKS4_
FNDA:21,_ZN17QGenericAtomicOpsI15QBasicAtomicOpsILi4EEE4loadIiEET_RKS4_
FNF:1
FNH:1
DA:90,21
LF:1
LH:1
end_of_record
SF:/Users/gorankostadinov/Qt/5.5/clang_64/lib/QtCore.framework/Headers/qrefcount.h
FN:59,_ZN9QtPrivate8RefCount5derefEv
FNDA:21,_ZN9QtPrivate8RefCount5derefEv
FNF:1
FNH:1
DA:60,21
DA:62,21
DA:63,0
DA:65,21
DA:66,0
DA:67,21
DA:68,21
LF:7
LH:5
end_of_record
SF:/Users/gorankostadinov/Qt/5.5/clang_64/lib/QtCore.framework/Headers/qstring.h
FN:649,_ZN7QStringC2EPKc
FN:649,_ZN7QStringC1EPKc
FN:1053,_ZN7QStringD1Ev
FN:1053,_ZN7QStringD2Ev
FNDA:21,_ZN7QStringC1EPKc
FNDA:21,_ZN7QStringC2EPKc
FNDA:21,_ZN7QStringD1Ev
FNDA:21,_ZN7QStringD2Ev
FNF:4
FNH:4
DA:650,63
DA:651,63
DA:1053,84
LF:3
LH:3
end_of_record
SF:/Users/gorankostadinov/Qt/5.5/clang_64/lib/QtTest.framework/Headers/qtestcase.h
FN:290,_ZN5QTest8qCompareIbEEbRKT_S3_PKcS5_S5_i
FNDA:28,_ZN5QTest8qCompareIbEEbRKT_S3_PKcS5_S5_i
FNF:1
FNH:1
DA:293,56
DA:294,28
LF:2
LH:2
end_of_record
SF:/Users/gorankostadinov/Qt/5.5/clang_64/lib/QtWidgets.framework/Headers/qwidget.h
FN:815,_ZNK7QWidget9isVisibleEv
FN:851,_ZNK7QWidget13testAttributeEN2Qt15WidgetAttributeE
FNDA:14,_ZNK7QWidget9isVisibleEv
FNDA:14,_ZNK7QWidget13testAttributeEN2Qt15WidgetAttributeE
FNF:2
FNH:2
DA:816,14
DA:853,14
DA:854,14
DA:855,0
DA:856,14
LF:5
LH:4
end_of_record
SF:/Users/gorankostadinov/Workspace/Qt/RightwareDemo/libmain/view_mainwindow.h
FN:26,_ZN15View_MainWindow12getControlerEv
FNDA:7,_ZN15View_MainWindow12getControlerEv
FNF:1
FNH:1
DA:26,7
LF:1
LH:1
end_of_record
SF:/Users/gorankostadinov/Workspace/Qt/RightwareDemo/test/startuptimetest.cpp
FN:22,_ZN15StartupTimeTestC1EP7QObject
FN:22,_ZN15StartupTimeTestC2EP7QObject
FN:25,_ZN15StartupTimeTest12initTestCaseEv
FN:48,_ZN15StartupTimeTest15cleanupTestCaseEv
FN:55,_ZN15StartupTimeTest4initEv
FN:61,_ZN15StartupTimeTest7cleanupEv
FN:67,_ZN15StartupTimeTest4testEv
FNDA:7,_ZN15StartupTimeTestC2EP7QObject
FNDA:7,_ZN15StartupTimeTestC1EP7QObject
FNDA:7,_ZN15StartupTimeTest12initTestCaseEv
FNDA:7,_ZN15StartupTimeTest15cleanupTestCaseEv
FNDA:7,_ZN15StartupTimeTest4initEv
FNDA:7,_ZN15StartupTimeTest7cleanupEv
FNDA:7,_ZN15StartupTimeTest4testEv
FNF:7
FNH:7
DA:23,14
DA:27,7
DA:30,7
DA:31,7
DA:34,7
DA:37,7
DA:39,0
DA:42,7
DA:45,14
DA:46,14
DA:50,7
DA:52,7
DA:53,7
DA:58,14
DA:59,7
DA:64,7
DA:65,7
DA:70,7
DA:73,7
DA:75,21
DA:76,14
DA:77,14
LF:22
LH:21
end_of_record
TN:
SF:/Users/gorankostadinov/Qt/5.5/clang_64/lib/QtGui.framework/Headers/qopenglfunctions.h
FN:225,_ZN16QOpenGLFunctionsD2Ev
FN:721,_ZN16QOpenGLFunctions14glDrawElementsEjijPKv
FNDA:7,_ZN16QOpenGLFunctionsD2Ev
FNDA:10165,_ZN16QOpenGLFunctions14glDrawElementsEjijPKv
FNF:2
FNH:2
DA:225,7
DA:727,10165
DA:730,10165
LF:3
LH:3
end_of_record
SF:/Users/gorankostadinov/Qt/5.5/clang_64/lib/QtGui.framework/Headers/qvector2d.h
FN:129,_ZN9QVector2DC1Eff
FN:129,_ZN9QVector2DC2Eff
FNDA:1680,_ZN9QVector2DC1Eff
FNDA:1680,_ZN9QVector2DC2Eff
FNF:2
FNH:2
DA:129,3360
LF:1
LH:1
end_of_record
SF:/Users/gorankostadinov/Qt/5.5/clang_64/lib/QtGui.framework/Headers/qvector3d.h
FN:55,_ZN9QVector3DC1Efff
FN:55,_ZN9QVector3DC2Efff
FN:157,_ZNK9QVector3D1xEv
FN:158,_ZNK9QVector3D1yEv
FN:159,_ZNK9QVector3D1zEv
FN:161,_ZN9QVector3D4setXEf
FN:162,_ZN9QVector3D4setYEf
FN:163,_ZN9QVector3D4setZEf
FN:177,_ZN9QVector3DpLERKS_
FNDA:1750,_ZN9QVector3DC1Efff
FNDA:1750,_ZN9QVector3DC2Efff
FNDA:1680,_ZNK9QVector3D1xEv
FNDA:1680,_ZNK9QVector3D1yEv
FNDA:1680,_ZNK9QVector3D1zEv
FNDA:1680,_ZN9QVector3D4setXEf
FNDA:1680,_ZN9QVector3D4setYEf
FNDA:1680,_ZN9QVector3D4setZEf
FNDA:1680,_ZN9QVector3DpLERKS_
FNF:9
FNH:9
DA:55,3500
DA:157,1680
DA:158,1680
DA:159,1680
DA:161,1680
DA:162,1680
DA:163,1680
DA:179,1680
DA:180,1680
DA:181,1680
DA:182,1680
LF:11
LH:11
end_of_record
SF:/Users/gorankostadinov/Workspace/Qt/RightwareDemo/libmain/view_geometryengine.cpp
FN:24,_ZN19View_GeometryEngineC2Ev
FN:24,_ZN19View_GeometryEngineC1Ev
FN:37,_ZN19View_GeometryEngineD1Ev
FN:37,_ZN19View_GeometryEngineD2Ev
FN:37,_ZN19View_GeometryEngineD0Ev
FN:43,_ZN19View_GeometryEngine16initCubeGeometryEv
FN:125,_ZN19View_GeometryEngine16drawCubeGeometryEP20QOpenGLShaderProgram
FNDA:70,_ZN19View_GeometryEngineC2Ev
FNDA:70,_ZN19View_GeometryEngineC1Ev
FNDA:7,_ZN19View_GeometryEngineD2Ev
FNDA:7,_ZN19View_GeometryEngineD1Ev
FNDA:7,_ZN19View_GeometryEngineD0Ev
FNDA:70,_ZN19View_GeometryEngine16initCubeGeometryEv
FNDA:10165,_ZN19View_GeometryEngine16drawCubeGeometryEP20QOpenGLShaderProgram
FNF:7
FNH:7
DA:26,140
DA:27,70
DA:30,70
DA:31,70
DA:34,70
DA:35,140
DA:38,21
DA:39,7
DA:40,7
DA:41,21
DA:48,70
DA:87,140
DA:88,70
DA:89,70
DA:92,3500
DA:94,1680
DA:95,1680
DA:96,1680
DA:97,1680
DA:107,70
DA:117,70
DA:118,70
DA:121,70
DA:122,70
DA:123,70
DA:128,10165
DA:129,10165
DA:135,10165
DA:136,10165
DA:137,10165
DA:143,10165
DA:144,10165
DA:145,10165
DA:148,10165
DA:149,10165
LF:35
LH:35
end_of_record
TN:
SF:/Applications/Xcode.app/Contents/Developer/Toolchains/XcodeDefault.xctoolchain/usr/include/c++/v1/__split_buffer
FN:54,_ZNSt3__114__split_bufferIP19View_GeometryEngineRNS_9allocatorIS2_EEE7__allocEv
FN:56,_ZNSt3__114__split_bufferIP19View_GeometryEngineRNS_9allocatorIS2_EEE9__end_capEv
FN:57,_ZNKSt3__114__split_bufferIP19View_GeometryEngineRNS_9allocatorIS2_EEE9__end_capEv
FN:82,_ZNSt3__114__split_bufferIP19View_GeometryEngineRNS_9allocatorIS2_EEE5clearEv
FN:86,_ZNKSt3__114__split_bufferIP19View_GeometryEngineRNS_9allocatorIS2_EEE8capacityEv
FN:135,_ZNSt3__114__split_bufferIP19View_GeometryEngineRNS_9allocatorIS2_EEE17__destruct_at_endEPS2_
FN:307,_ZNSt3__114__split_bufferIP19View_GeometryEngineRNS_9allocatorIS2_EEE17__destruct_at_endEPS2_NS_17integral_constantIbLb0EEE
FN:322,_ZNSt3__114__split_bufferIP19View_GeometryEngineRNS_9allocatorIS2_EEEC1EmmS5_
FN:322,_ZNSt3__114__split_bufferIP19View_GeometryEngineRNS_9allocatorIS2_EEEC2EmmS5_
FN:353,_ZNSt3__114__split_bufferIP19View_GeometryEngineRNS_9allocatorIS2_EEED2Ev
FN:353,_ZNSt3__114__split_bufferIP19View_GeometryEngineRNS_9allocatorIS2_EEED1Ev
FNDA:105,_ZNSt3__114__split_bufferIP19View_GeometryEngineRNS_9allocatorIS2_EEE7__allocEv
FNDA:70,_ZNSt3__114__split_bufferIP19View_GeometryEngineRNS_9allocatorIS2_EEE9__end_capEv
FNDA:21,_ZNKSt3__114__split_bufferIP19View_GeometryEngineRNS_9allocatorIS2_EEE9__end_capEv
FNDA:35,_ZNSt3__114__split_bufferIP19View_GeometryEngineRNS_9allocatorIS2_EEE5clearEv
FNDA:21,_ZNKSt3__114__split_bufferIP19View_GeometryEngineRNS_9allocatorIS2_EEE8capacityEv
FNDA:35,_ZNSt3__114__split_bufferIP19View_GeometryEngineRNS_9allocatorIS2_EEE17__destruct_at_endEPS2_
FNDA:35,_ZNSt3__114__split_bufferIP19View_GeometryEngineRNS_9allocatorIS2_EEE17__destruct_at_endEPS2_NS_17integral_constantIbLb0EEE
FNDA:35,_ZNSt3__114__split_bufferIP19View_GeometryEngineRNS_9allocatorIS2_EEEC1EmmS5_
FNDA:35,_ZNSt3__114__split_bufferIP19View_GeometryEngineRNS_9allocatorIS2_EEEC2EmmS5_
FNDA:35,_ZNSt3__114__split_bufferIP19View_GeometryEngineRNS_9allocatorIS2_EEED1Ev
FNDA:35,_ZNSt3__114__split_bufferIP19View_GeometryEngineRNS_9allocatorIS2_EEED2Ev
FNF:11
FNH:11
DA:54,105
DA:56,70
DA:57,21
DA:83,35
DA:86,21
DA:136,35
DA:309,119
DA:310,63
DA:311,35
DA:324,35
DA:325,105
DA:326,35
DA:327,35
DA:328,70
DA:354,35
DA:355,35
DA:356,35
DA:357,21
DA:358,70
LF:19
LH:19
end_of_record
SF:/Applications/Xcode.app/Contents/Developer/Toolchains/XcodeDefault.xctoolchain/usr/include/c++/v1/algorithm
FN:702,_ZNKSt3__16__lessImmEclERKmS3_
FN:850,_ZNSt3__18for_eachINS_11__wrap_iterIPP19View_GeometryEngineEEZN15View_MainWidget7paintGLEvE3$_1EET0_T_S9_S8_
FN:850,_ZNSt3__18for_eachINS_11__wrap_iterIPP19View_GeometryEngineEEZN15View_MainWidgetD1EvE3$_0EET0_T_S9_S8_
FN:2573,_ZNSt3__13minImNS_6__lessImmEEEERKT_S5_S5_T0_
FN:2581,_ZNSt3__13minImEERKT_S3_S3_
FN:2646,_ZNSt3__13maxImNS_6__lessImmEEEERKT_S5_S5_T0_
FN:2654,_ZNSt3__13maxImEERKT_S3_S3_
FNDA:70,_ZNKSt3__16__lessImmEclERKmS3_
FNDA:5141,_ZNSt3__18for_eachINS_11__wrap_iterIPP19View_GeometryEngineEEZN15View_MainWidget7paintGLEvE3$_1EET0_T_S9_S8_
FNDA:14,_ZNSt3__18for_eachINS_11__wrap_iterIPP19View_GeometryEngineEEZN15View_MainWidgetD1EvE3$_0EET0_T_S9_S8_
FNDA:35,_ZNSt3__13minImNS_6__lessImmEEEERKT_S5_S5_T0_
FNDA:35,_ZNSt3__13minImEERKT_S3_S3_
FNDA:35,_ZNSt3__13maxImNS_6__lessImmEEEERKT_S5_S5_T0_
FNDA:35,_ZNSt3__13maxImEERKT_S3_S3_
FNF:7
FNH:7
DA:702,70
DA:852,30654
DA:853,10172
DA:854,5155
DA:2575,35
DA:2583,35
DA:2648,35
DA:2656,35
LF:8
LH:8
end_of_record
SF:/Applications/Xcode.app/Contents/Developer/Toolchains/XcodeDefault.xctoolchain/usr/include/c++/v1/iterator
FN:1157,_ZNKSt3__111__wrap_iterIPP19View_GeometryEngineEdeEv
FN:1173,_ZNSt3__111__wrap_iterIPP19View_GeometryEngineEppEv
FN:1219,_ZNKSt3__111__wrap_iterIPP19View_GeometryEngineE4baseEv
FN:1228,_ZNSt3__111__wrap_iterIPP19View_GeometryEngineEC2ES3_
FN:1228,_ZNSt3__111__wrap_iterIPP19View_GeometryEngineEC1ES3_
FN:1293,_ZNSt3__1eqIPP19View_GeometryEngineS3_EEbRKNS_11__wrap_iterIT_EERKNS4_IT0_EE
FN:1345,_ZNSt3__1neIPP19View_GeometryEngineEEbRKNS_11__wrap_iterIT_EES8_
FNDA:10172,_ZNKSt3__111__wrap_iterIPP19View_GeometryEngineEdeEv
FNDA:10172,_ZNSt3__111__wrap_iterIPP19View_GeometryEngineEppEv
FNDA:30654,_ZNKSt3__111__wrap_iterIPP19View_GeometryEngineE4baseEv
FNDA:10310,_ZNSt3__111__wrap_iterIPP19View_GeometryEngineEC1ES3_
FNDA:10310,_ZNSt3__111__wrap_iterIPP19View_GeometryEngineEC2ES3_
FNDA:15327,_ZNSt3__1eqIPP19View_GeometryEngineS3_EEbRKNS_11__wrap_iterIT_EERKNS4_IT0_EE
FNDA:15327,_ZNSt3__1neIPP19View_GeometryEngineEEbRKNS_11__wrap_iterIT_EES8_
FNF:7
FNH:7
DA:1163,10172
DA:1179,10172
DA:1180,10172
DA:1219,30654
DA:1228,20620
DA:1295,15327
DA:1347,15327
LF:7
LH:7
end_of_record
SF:/Applications/Xcode.app/Contents/Developer/Toolchains/XcodeDefault.xctoolchain/usr/include/c++/v1/limits
FN:212,_ZNSt3__123__libcpp_numeric_limitsImLb1EE3maxEv
FN:448,_ZNSt3__114numeric_limitsImE3maxEv
FNDA:35,_ZNSt3__123__libcpp_numeric_limitsImLb1EE3maxEv
FNDA:35,_ZNSt3__114numeric_limitsImE3maxEv
FNF:2
FNH:2
DA:212,35
DA:448,35
LF:2
LH:2
end_of_record
SF:/Applications/Xcode.app/Contents/Developer/Toolchains/XcodeDefault.xctoolchain/usr/include/c++/v1/memory
FN:1041,_ZNSt3__116__to_raw_pointerIP19View_GeometryEngineEEPT_S4_
FN:1438,_ZNSt3__116allocator_traitsINS_9allocatorIP19View_GeometryEngineEEE8allocateERS4_m
FN:1446,_ZNSt3__116allocator_traitsINS_9allocatorIP19View_GeometryEngineEEE10deallocateERS4_PS3_m
FN:1452,_ZNSt3__116allocator_traitsINS_9allocatorIP19View_GeometryEngineEEE9constructIS3_JS3_EEEvRS4_PT_DpOT0_
FN:1486,_ZNSt3__116allocator_traitsINS_9allocatorIP19View_GeometryEngineEEE7destroyIS3_EEvRS4_PT_
FN:1490,_ZNSt3__116allocator_traitsINS_9allocatorIP19View_GeometryEngineEEE8max_sizeERKS4_
FN:1550,_ZNSt3__116allocator_traitsINS_9allocatorIP19View_GeometryEngineEEE20__construct_backwardIS3_EENS_9enable_ifIXaaoosr7is_sameIS4_NS1_IT_EEEE5valuentsr15__has_constructIS4_PS8_S8_EE5valuesr31is_trivially_move_constructibleIS8_EE5valueEvE4typeERS4_SA_SA_RSA_
FN:1571,_ZNSt3__116allocator_traitsINS_9allocatorIP19View_GeometryEngineEEE11__constructIS3_JS3_EEEvNS_17integral_constantIbLb1EEERS4_PT_DpOT0_
FN:1583,_ZNSt3__116allocator_traitsINS_9allocatorIP19View_GeometryEngineEEE9__destroyIS3_EEvNS_17integral_constantIbLb1EEERS4_PT_
FN:1593,_ZNSt3__116allocator_traitsINS_9allocatorIP19View_GeometryEngineEEE10__max_sizeENS_17integral_constantIbLb1EEERKS4_
FN:1627,_ZNSt3__19allocatorIP19View_GeometryEngineEC2Ev
FN:1633,_ZNSt3__19allocatorIP19View_GeometryEngineE8allocateEmPKv
FN:1635,_ZNSt3__19allocatorIP19View_GeometryEngineE10deallocateEPS2_m
FN:1637,_ZNKSt3__19allocatorIP19View_GeometryEngineE8max_sizeEv
FN:1643,_ZNSt3__19allocatorIP19View_GeometryEngineE9constructIS2_JS2_EEEvPT_DpOT0_
FN:1700,_ZNSt3__19allocatorIP19View_GeometryEngineE7destroyEPS2_
FN:1958,_ZNSt3__128__libcpp_compressed_pair_impIPP19View_GeometryEngineRNS_9allocatorIS2_EELj0EEC2ES3_S6_
FN:2014,_ZNSt3__128__libcpp_compressed_pair_impIPP19View_GeometryEngineRNS_9allocatorIS2_EELj0EE5firstEv
FN:2015,_ZNKSt3__128__libcpp_compressed_pair_impIPP19View_GeometryEngineRNS_9allocatorIS2_EELj0EE5firstEv
FN:2017,_ZNSt3__128__libcpp_compressed_pair_impIPP19View_GeometryEngineRNS_9allocatorIS2_EELj0EE6secondEv
FN:2137,_ZNSt3__128__libcpp_compressed_pair_impIPP19View_GeometryEngineNS_9allocatorIS2_EELj2EEC2ES3_
FN:2198,_ZNSt3__128__libcpp_compressed_pair_impIPP19View_GeometryEngineNS_9allocatorIS2_EELj2EE5firstEv
FN:2199,_ZNKSt3__128__libcpp_compressed_pair_impIPP19View_GeometryEngineNS_9allocatorIS2_EELj2EE5firstEv
FN:2201,_ZNSt3__128__libcpp_compressed_pair_impIPP19View_GeometryEngineNS_9allocatorIS2_EELj2EE6secondEv
FN:2202,_ZNKSt3__128__libcpp_compressed_pair_impIPP19View_GeometryEngineNS_9allocatorIS2_EELj2EE6secondEv
FN:2316,_ZNSt3__117__compressed_pairIPP19View_GeometryEngineNS_9allocatorIS2_EEEC1ES3_
FN:2316,_ZNSt3__117__compressed_pairIPP19View_GeometryEngineNS_9allocatorIS2_EEEC2ES3_
FN:2320,_ZNSt3__117__compressed_pairIPP19View_GeometryEngineRNS_9allocatorIS2_EEEC1ES3_S6_
FN:2320,_ZNSt3__117__compressed_pairIPP19View_GeometryEngineRNS_9allocatorIS2_EEEC2ES3_S6_
FN:2370,_ZNSt3__117__compressed_pairIPP19View_GeometryEngineRNS_9allocatorIS2_EEE5firstEv
FN:2370,_ZNSt3__117__compressed_pairIPP19View_GeometryEngineNS_9allocatorIS2_EEE5firstEv
FN:2371,_ZNKSt3__117__compressed_pairIPP19View_GeometryEngineRNS_9allocatorIS2_EEE5firstEv
FN:2371,_ZNKSt3__117__compressed_pairIPP19View_GeometryEngineNS_9allocatorIS2_EEE5firstEv
FN:2373,_ZNSt3__117__compressed_pairIPP19View_GeometryEngineRNS_9allocatorIS2_EEE6secondEv
FN:2373,_ZNSt3__117__compressed_pairIPP19View_GeometryEngineNS_9allocatorIS2_EEE6secondEv
FN:2374,_ZNKSt3__117__compressed_pairIPP19View_GeometryEngineNS_9allocatorIS2_EEE6secondEv
FNDA:861,_ZNSt3__116__to_raw_pointerIP19View_GeometryEngineEEPT_S4_
FNDA:35,_ZNSt3__116allocator_traitsINS_9allocatorIP19View_GeometryEngineEEE8allocateERS4_m
FNDA:35,_ZNSt3__116allocator_traitsINS_9allocatorIP19View_GeometryEngineEEE10deallocateERS4_PS3_m
FNDA:70,_ZNSt3__116allocator_traitsINS_9allocatorIP19View_GeometryEngineEEE9constructIS3_JS3_EEEvRS4_PT_DpOT0_
FNDA:119,_ZNSt3__116allocator_traitsINS_9allocatorIP19View_GeometryEngineEEE7destroyIS3_EEvRS4_PT_
FNDA:35,_ZNSt3__116allocator_traitsINS_9allocatorIP19View_GeometryEngineEEE8max_sizeERKS4_
FNDA:35,_ZNSt3__116allocator_traitsINS_9allocatorIP19View_GeometryEngineEEE20__construct_backwardIS3_EENS_9enable_ifIXaaoosr7is_sameIS4_NS1_IT_EEEE5valuentsr15__has_constructIS4_PS8_S8_EE5valuesr31is_trivially_move_constructibleIS8_EE5valueEvE4typeERS4_SA_SA_RSA_
FNDA:70,_ZNSt3__116allocator_traitsINS_9allocatorIP19View_GeometryEngineEEE11__constructIS3_JS3_EEEvNS_17integral_constantIbLb1EEERS4_PT_DpOT0_
FNDA:119,_ZNSt3__116allocator_traitsINS_9allocatorIP19View_GeometryEngineEEE9__destroyIS3_EEvNS_17integral_constantIbLb1EEERS4_PT_
FNDA:35,_ZNSt3__116allocator_traitsINS_9allocatorIP19View_GeometryEngineEEE10__max_sizeENS_17integral_constantIbLb1EEERKS4_
FNDA:14,_ZNSt3__19allocatorIP19View_GeometryEngineEC2Ev
FNDA:35,_ZNSt3__19allocatorIP19View_GeometryEngineE8allocateEmPKv
FNDA:35,_ZNSt3__19allocatorIP19View_GeometryEngineE10deallocateEPS2_m
FNDA:35,_ZNKSt3__19allocatorIP19View_GeometryEngineE8max_sizeEv
FNDA:70,_ZNSt3__19allocatorIP19View_GeometryEngineE9constructIS2_JS2_EEEvPT_DpOT0_
FNDA:119,_ZNSt3__19allocatorIP19View_GeometryEngineE7destroyEPS2_
FNDA:35,_ZNSt3__128__libcpp_compressed_pair_impIPP19View_GeometryEngineRNS_9allocatorIS2_EELj0EEC2ES3_S6_
FNDA:70,_ZNSt3__128__libcpp_compressed_pair_impIPP19View_GeometryEngineRNS_9allocatorIS2_EELj0EE5firstEv
FNDA:21,_ZNKSt3__128__libcpp_compressed_pair_impIPP19View_GeometryEngineRNS_9allocatorIS2_EELj0EE5firstEv
FNDA:105,_ZNSt3__128__libcpp_compressed_pair_impIPP19View_GeometryEngineRNS_9allocatorIS2_EELj0EE6secondEv
FNDA:14,_ZNSt3__128__libcpp_compressed_pair_impIPP19View_GeometryEngineNS_9allocatorIS2_EELj2EEC2ES3_
FNDA:105,_ZNSt3__128__libcpp_compressed_pair_impIPP19View_GeometryEngineNS_9allocatorIS2_EELj2EE5firstEv
FNDA:287,_ZNKSt3__128__libcpp_compressed_pair_impIPP19View_GeometryEngineNS_9allocatorIS2_EELj2EE5firstEv
FNDA:189,_ZNSt3__128__libcpp_compressed_pair_impIPP19View_GeometryEngineNS_9allocatorIS2_EELj2EE6secondEv
FNDA:35,_ZNKSt3__128__libcpp_compressed_pair_impIPP19View_GeometryEngineNS_9allocatorIS2_EELj2EE6secondEv
FNDA:14,_ZNSt3__117__compressed_pairIPP19View_GeometryEngineNS_9allocatorIS2_EEEC1ES3_
FNDA:14,_ZNSt3__117__compressed_pairIPP19View_GeometryEngineNS_9allocatorIS2_EEEC2ES3_
FNDA:35,_ZNSt3__117__compressed_pairIPP19View_GeometryEngineRNS_9allocatorIS2_EEEC1ES3_S6_
FNDA:35,_ZNSt3__117__compressed_pairIPP19View_GeometryEngineRNS_9allocatorIS2_EEEC2ES3_S6_
FNDA:70,_ZNSt3__117__compressed_pairIPP19View_GeometryEngineRNS_9allocatorIS2_EEE5firstEv
FNDA:105,_ZNSt3__117__compressed_pairIPP19View_GeometryEngineNS_9allocatorIS2_EEE5firstEv
FNDA:287,_ZNKSt3__117__compressed_pairIPP19View_GeometryEngineNS_9allocatorIS2_EEE5firstEv
FNDA:21,_ZNKSt3__117__compressed_pairIPP19View_GeometryEngineRNS_9allocatorIS2_EEE5firstEv
FNDA:189,_ZNSt3__117__compressed_pairIPP19View_GeometryEngineNS_9allocatorIS2_EEE6secondEv
FNDA:105,_ZNSt3__117__compressed_pairIPP19View_GeometryEngineRNS_9allocatorIS2_EEE6secondEv
FNDA:35,_ZNKSt3__117__compressed_pairIPP19View_GeometryEngineNS_9allocatorIS2_EEE6secondEv
FNF:36
FNH:36
DA:1043,861
DA:1439,35
DA:1447,35
DA:1453,70
DA:1454,140
DA:1487,119
DA:1491,35
DA:1552,35
DA:1553,35
DA:1554,35
DA:1555,35
DA:1572,70
DA:1584,119
DA:1594,35
DA:1627,14
DA:1634,35
DA:1636,35
DA:1638,35
DA:1645,140
DA:1646,70
DA:1700,119
DA:1959,35
DA:2014,70
DA:2015,21
DA:2017,105
DA:2138,14
DA:2198,105
DA:2199,287
DA:2201,189
DA:2202,35
DA:2317,28
DA:2321,70
DA:2370,175
DA:2371,308
DA:2373,294
DA:2374,35
LF:36
LH:36
end_of_record
SF:/Applications/Xcode.app/Contents/Developer/Toolchains/XcodeDefault.xctoolchain/usr/include/c++/v1/new
FN:152,_ZNSt3__110__allocateEm
FN:160,_ZNSt3__112__deallocateEPv
FNDA:35,_ZNSt3__110__allocateEm
FNDA:35,_ZNSt3__112__deallocateEPv
FNF:2
FNH:2
DA:156,35
DA:164,35
DA:166,35
LF:3
LH:3
end_of_record
SF:/Applications/Xcode.app/Contents/Developer/Toolchains/XcodeDefault.xctoolchain/usr/include/c++/v1/type_traits
FN:1603,_ZNSt3__14moveIRZN15View_MainWidget7paintGLEvE3$_1EEONS_16remove_referenceIT_E4typeEOS5_
FN:1603,_ZNSt3__14moveIRPP19View_GeometryEngineEEONS_16remove_referenceIT_E4typeEOS6_
FN:1603,_ZNSt3__14moveIRZN15View_MainWidgetD1EvE3$_0EEONS_16remove_referenceIT_E4typeEOS5_
FN:1603,_ZNSt3__14moveIR6QImageEEONS_16remove_referenceIT_E4typeEOS4_
FN:1603,_ZNSt3__14moveIRP19View_GeometryEngineEEONS_16remove_referenceIT_E4typeEOS5_
FN:1612,_ZNSt3__17forwardIP19View_GeometryEngineEEOT_RNS_16remove_referenceIS3_E4typeE
FN:1612,_ZNSt3__17forwardIPP19View_GeometryEngineEEOT_RNS_16remove_referenceIS4_E4typeE
FN:1612,_ZNSt3__17forwardIRNS_9allocatorIP19View_GeometryEngineEEEEOT_RNS_16remove_referenceIS6_E4typeE
FN:3530,_ZNSt3__14swapIPP19View_GeometryEngineEENS_9enable_ifIXaasr21is_move_constructibleIT_EE5valuesr18is_move_assignableIS5_EE5valueEvE4typeERS5_S8_
FNDA:5141,_ZNSt3__14moveIRZN15View_MainWidget7paintGLEvE3$_1EEONS_16remove_referenceIT_E4typeEOS5_
FNDA:315,_ZNSt3__14moveIRPP19View_GeometryEngineEEONS_16remove_referenceIT_E4typeEOS6_
FNDA:70,_ZNSt3__14moveIRP19View_GeometryEngineEEONS_16remove_referenceIT_E4typeEOS5_
FNDA:14,_ZNSt3__14moveIRZN15View_MainWidgetD1EvE3$_0EEONS_16remove_referenceIT_E4typeEOS5_
FNDA:14,_ZNSt3__14moveIR6QImageEEONS_16remove_referenceIT_E4typeEOS4_
FNDA:245,_ZNSt3__17forwardIP19View_GeometryEngineEEOT_RNS_16remove_referenceIS3_E4typeE
FNDA:70,_ZNSt3__17forwardIRNS_9allocatorIP19View_GeometryEngineEEEEOT_RNS_16remove_referenceIS6_E4typeE
FNDA:98,_ZNSt3__17forwardIPP19View_GeometryEngineEEOT_RNS_16remove_referenceIS4_E4typeE
FNDA:105,_ZNSt3__14swapIPP19View_GeometryEngineEENS_9enable_ifIXaasr21is_move_constructibleIT_EE5valuesr18is_move_assignableIS5_EE5valueEvE4typeERS5_S8_
FNF:9
FNH:9
DA:1606,5554
DA:1614,413
DA:3533,105
DA:3534,105
DA:3535,105
DA:3536,105
LF:6
LH:6
end_of_record
SF:/Applications/Xcode.app/Contents/Developer/Toolchains/XcodeDefault.xctoolchain/usr/include/c++/v1/vector
FN:291,_ZNSt3__120__vector_base_commonILb1EEC2Ev
FN:349,_ZNSt3__113__vector_baseIP19View_GeometryEngineNS_9allocatorIS2_EEE7__allocEv
FN:352,_ZNKSt3__113__vector_baseIP19View_GeometryEngineNS_9allocatorIS2_EEE7__allocEv
FN:355,_ZNSt3__113__vector_baseIP19View_GeometryEngineNS_9allocatorIS2_EEE9__end_capEv
FN:358,_ZNKSt3__113__vector_baseIP19View_GeometryEngineNS_9allocatorIS2_EEE9__end_capEv
FN:368,_ZNSt3__113__vector_baseIP19View_GeometryEngineNS_9allocatorIS2_EEE5clearEv
FN:370,_ZNKSt3__113__vector_baseIP19View_GeometryEngineNS_9allocatorIS2_EEE8capacityEv
FN:441,_ZNSt3__113__vector_baseIP19View_GeometryEngineNS_9allocatorIS2_EEE17__destruct_at_endEPS2_
FN:449,_ZNSt3__113__vector_baseIP19View_GeometryEngineNS_9allocatorIS2_EEEC2Ev
FN:467,_ZNSt3__113__vector_baseIP19View_GeometryEngineNS_9allocatorIS2_EEED2Ev
FN:477,_ZNSt3__16vectorIP19View_GeometryEngineNS_9allocatorIS2_EEED1Ev
FN:477,_ZNSt3__16vectorIP19View_GeometryEngineNS_9allocatorIS2_EEED2Ev
FN:503,_ZNSt3__16vectorIP19View_GeometryEngineNS_9allocatorIS2_EEEC1Ev
FN:503,_ZNSt3__16vectorIP19View_GeometryEngineNS_9allocatorIS2_EEEC2Ev
FN:652,_ZNKSt3__16vectorIP19View_GeometryEngineNS_9allocatorIS2_EEE4sizeEv
FN:655,_ZNKSt3__16vectorIP19View_GeometryEngineNS_9allocatorIS2_EEE8capacityEv
FN:691,_ZNSt3__16vectorIP19View_GeometryEngineNS_9allocatorIS2_EEE4dataEv
FN:801,_ZNSt3__16vectorIP19View_GeometryEngineNS_9allocatorIS2_EEE17__destruct_at_endEPS2_
FN:838,_ZNSt3__16vectorIP19View_GeometryEngineNS_9allocatorIS2_EEE31__annotate_contiguous_containerEPKvS7_S7_S7_
FN:847,_ZNSt3__16vectorIP19View_GeometryEngineNS_9allocatorIS2_EEE14__annotate_newEm
FN:852,_ZNSt3__16vectorIP19View_GeometryEngineNS_9allocatorIS2_EEE17__annotate_deleteEv
FN:857,_ZNSt3__16vectorIP19View_GeometryEngineNS_9allocatorIS2_EEE19__annotate_increaseEm
FN:862,_ZNSt3__16vectorIP19View_GeometryEngineNS_9allocatorIS2_EEE17__annotate_shrinkEm
FN:871,_ZNSt3__16vectorIP19View_GeometryEngineNS_9allocatorIS2_EEE26__swap_out_circular_bufferERNS_14__split_bufferIS2_RS4_EE
FN:932,_ZNKSt3__16vectorIP19View_GeometryEngineNS_9allocatorIS2_EEE8max_sizeEv
FN:941,_ZNKSt3__16vectorIP19View_GeometryEngineNS_9allocatorIS2_EEE11__recommendEm
FN:1434,_ZNSt3__16vectorIP19View_GeometryEngineNS_9allocatorIS2_EEE11__make_iterEPS2_
FN:1458,_ZNSt3__16vectorIP19View_GeometryEngineNS_9allocatorIS2_EEE5beginEv
FN:1474,_ZNSt3__16vectorIP19View_GeometryEngineNS_9allocatorIS2_EEE3endEv
FN:1561,_ZNSt3__16vectorIP19View_GeometryEngineNS_9allocatorIS2_EEE21__push_back_slow_pathIS2_EEvOT_
FN:1595,_ZNSt3__16vectorIP19View_GeometryEngineNS_9allocatorIS2_EEE9push_backEOS2_
FN:1648,_ZNSt3__16vectorIP19View_GeometryEngineNS_9allocatorIS2_EEE8pop_backEv
FN:2072,_ZNSt3__16vectorIP19View_GeometryEngineNS_9allocatorIS2_EEE26__invalidate_all_iteratorsEv
FNDA:14,_ZNSt3__120__vector_base_commonILb1EEC2Ev
FNDA:189,_ZNSt3__113__vector_baseIP19View_GeometryEngineNS_9allocatorIS2_EEE7__allocEv
FNDA:35,_ZNKSt3__113__vector_baseIP19View_GeometryEngineNS_9allocatorIS2_EEE7__allocEv
FNDA:105,_ZNSt3__113__vector_baseIP19View_GeometryEngineNS_9allocatorIS2_EEE9__end_capEv
FNDA:287,_ZNKSt3__113__vector_baseIP19View_GeometryEngineNS_9allocatorIS2_EEE9__end_capEv
FNDA:14,_ZNSt3__113__vector_baseIP19View_GeometryEngineNS_9allocatorIS2_EEE5clearEv
FNDA:287,_ZNKSt3__113__vector_baseIP19View_GeometryEngineNS_9allocatorIS2_EEE8capacityEv
FNDA:77,_ZNSt3__113__vector_baseIP19View_GeometryEngineNS_9allocatorIS2_EEE17__destruct_at_endEPS2_
FNDA:14,_ZNSt3__113__vector_baseIP19View_GeometryEngineNS_9allocatorIS2_EEEC2Ev
FNDA:14,_ZNSt3__113__vector_baseIP19View_GeometryEngineNS_9allocatorIS2_EEED2Ev
FNDA:14,_ZNSt3__16vectorIP19View_GeometryEngineNS_9allocatorIS2_EEED1Ev
FNDA:14,_ZNSt3__16vectorIP19View_GeometryEngineNS_9allocatorIS2_EEED2Ev
FNDA:14,_ZNSt3__16vectorIP19View_GeometryEngineNS_9allocatorIS2_EEEC1Ev
FNDA:14,_ZNSt3__16vectorIP19View_GeometryEngineNS_9allocatorIS2_EEEC2Ev
FNDA:721,_ZNKSt3__16vectorIP19View_GeometryEngineNS_9allocatorIS2_EEE4sizeEv
FNDA:273,_ZNKSt3__16vectorIP19View_GeometryEngineNS_9allocatorIS2_EEE8capacityEv
FNDA:672,_ZNSt3__16vectorIP19View_GeometryEngineNS_9allocatorIS2_EEE4dataEv
FNDA:63,_ZNSt3__16vectorIP19View_GeometryEngineNS_9allocatorIS2_EEE17__destruct_at_endEPS2_
FNDA:168,_ZNSt3__16vectorIP19View_GeometryEngineNS_9allocatorIS2_EEE31__annotate_contiguous_containerEPKvS7_S7_S7_
FNDA:35,_ZNSt3__16vectorIP19View_GeometryEngineNS_9allocatorIS2_EEE14__annotate_newEm
FNDA:35,_ZNSt3__16vectorIP19View_GeometryEngineNS_9allocatorIS2_EEE17__annotate_deleteEv
FNDA:35,_ZNSt3__16vectorIP19View_GeometryEngineNS_9allocatorIS2_EEE19__annotate_increaseEm
FNDA:63,_ZNSt3__16vectorIP19View_GeometryEngineNS_9allocatorIS2_EEE17__annotate_shrinkEm
FNDA:35,_ZNSt3__16vectorIP19View_GeometryEngineNS_9allocatorIS2_EEE26__swap_out_circular_bufferERNS_14__split_bufferIS2_RS4_EE
FNDA:35,_ZNKSt3__16vectorIP19View_GeometryEngineNS_9allocatorIS2_EEE8max_sizeEv
FNDA:35,_ZNKSt3__16vectorIP19View_GeometryEngineNS_9allocatorIS2_EEE11__recommendEm
FNDA:10310,_ZNSt3__16vectorIP19View_GeometryEngineNS_9allocatorIS2_EEE11__make_iterEPS2_
FNDA:5155,_ZNSt3__16vectorIP19View_GeometryEngineNS_9allocatorIS2_EEE5beginEv
FNDA:5155,_ZNSt3__16vectorIP19View_GeometryEngineNS_9allocatorIS2_EEE3endEv
FNDA:35,_ZNSt3__16vectorIP19View_GeometryEngineNS_9allocatorIS2_EEE21__push_back_slow_pathIS2_EEvOT_
FNDA:70,_ZNSt3__16vectorIP19View_GeometryEngineNS_9allocatorIS2_EEE9push_backEOS2_
FNDA:63,_ZNSt3__16vectorIP19View_GeometryEngineNS_9allocatorIS2_EEE8pop_backEv
FNDA:35,_ZNSt3__16vectorIP19View_GeometryEngineNS_9allocatorIS2_EEE26__invalidate_all_iteratorsEv
FNF:33
FNH:33
DA:291,14
DA:350,189
DA:353,35
DA:356,105
DA:359,287
DA:368,14
DA:371,287
DA:443,224
DA:444,140
DA:445,77
DA:454,14
DA:455,14
DA:469,14
DA:471,14
DA:472,14
DA:473,14
DA:474,14
DA:477,28
DA:505,14
DA:509,28
DA:653,721
DA:656,273
DA:692,672
DA:818,63
DA:819,63
DA:820,63
DA:821,63
DA:845,168
DA:849,70
DA:850,35
DA:851,35
DA:854,70
DA:855,35
DA:856,35
DA:859,70
DA:860,35
DA:861,35
DA:864,126
DA:865,63
DA:866,63
DA:873,35
DA:874,35
DA:875,35
DA:876,35
DA:877,35
DA:878,35
DA:879,35
DA:880,35
DA:881,35
DA:934,70
DA:943,35
DA:944,35
DA:945,0
DA:946,35
DA:947,35
DA:948,0
DA:949,35
DA:950,35
DA:1439,10310
DA:1460,5155
DA:1476,5155
DA:1566,35
DA:1567,35
DA:1569,35
DA:1570,35
DA:1571,35
DA:1572,35
DA:1597,70
DA:1599,35
DA:1600,70
DA:1601,35
DA:1602,35
DA:1603,35
DA:1604,35
DA:1606,35
DA:1607,70
DA:1651,63
DA:1652,63
DA:2077,35
LF:79
LH:77
end_of_record
SF:/Users/gorankostadinov/Qt/5.5/clang_64/lib/QtCore.framework/Headers/qarraydata.h
FN:219,_ZN15QTypedArrayDataItE10deallocateEP10QArrayData
FNDA:42,_ZN15QTypedArrayDataItE10deallocateEP10QArrayData
FNF:1
FNH:1
DA:222,42
DA:223,42
LF:2
LH:2
end_of_record
SF:/Users/gorankostadinov/Qt/5.5/clang_64/lib/QtCore.framework/Headers/qatomic_x86.h
FN:211,_ZN15QBasicAtomicOpsILi4EE5derefIiEEbRT_
FNDA:42,_ZN15QBasicAtomicOpsILi4EE5derefIiEEbRT_
FNF:1
FNH:1
DA:214,42
DA:220,42
LF:2
LH:2
end_of_record
SF:/Users/gorankostadinov/Qt/5.5/clang_64/lib/QtCore.framework/Headers/qbasicatomic.h
FN:118,_ZNK19QBasicAtomicIntegerIiE4loadEv
FN:130,_ZN19QBasicAtomicIntegerIiE5derefEv
FNDA:42,_ZNK19QBasicAtomicIntegerIiE4loadEv
FNDA:42,_ZN19QBasicAtomicIntegerIiE5derefEv
FNF:2
FNH:2
DA:118,42
DA:130,42
LF:2
LH:2
end_of_record
SF:/Users/gorankostadinov/Qt/5.5/clang_64/lib/QtCore.framework/Headers/qbasictimer.h
FN:49,_ZN11QBasicTimerC2Ev
FN:49,_ZN11QBasicTimerC1Ev
FN:50,_ZN11QBasicTimerD2Ev
FN:50,_ZN11QBasicTimerD1Ev
FNDA:14,_ZN11QBasicTimerC1Ev
FNDA:14,_ZN11QBasicTimerC2Ev
FNDA:14,_ZN11QBasicTimerD1Ev
FNDA:14,_ZN11QBasicTimerD2Ev
FNF:4
FNH:4
DA:49,28
DA:50,56
LF:2
LH:2
end_of_record
SF:/Users/gorankostadinov/Qt/5.5/clang_64/lib/QtCore.framework/Headers/qflags.h
FN:111,_ZN6QFlagsIN13QOpenGLShader13ShaderTypeBitEEC1ES1_
FN:111,_ZN6QFlagsIN13QOpenGLShader13ShaderTypeBitEEC2ES1_
FN:112,_ZN6QFlagsIN2Qt10WindowTypeEEC2EMNS2_7PrivateEi
FN:112,_ZN6QFlagsIN2Qt10WindowTypeEEC1EMNS2_7PrivateEi
FN:128,_ZNK6QFlagsIN2Qt11MouseButtonEEcvjEv
FNDA:28,_ZN6QFlagsIN13QOpenGLShader13ShaderTypeBitEEC1ES1_
FNDA:28,_ZN6QFlagsIN13QOpenGLShader13ShaderTypeBitEEC2ES1_
FNDA:14,_ZN6QFlagsIN2Qt10WindowTypeEEC1EMNS2_7PrivateEi
FNDA:14,_ZN6QFlagsIN2Qt10WindowTypeEEC2EMNS2_7PrivateEi
FNDA:0,_ZNK6QFlagsIN2Qt11MouseButtonEEcvjEv
FNF:5
FNH:4
DA:111,56
DA:112,28
DA:128,0
LF:3
LH:2
end_of_record
SF:/Users/gorankostadinov/Qt/5.5/clang_64/lib/QtCore.framework/Headers/qgenericatomic.h
FN:88,_ZN17QGenericAtomicOpsI15QBasicAtomicOpsILi4EEE4loadIiEET_RKS4_
FNDA:42,_ZN17QGenericAtomicOpsI15QBasicAtomicOpsILi4EEE4loadIiEET_RKS4_
FNF:1
FNH:1
DA:90,42
LF:1
LH:1
end_of_record
SF:/Users/gorankostadinov/Qt/5.5/clang_64/lib/QtCore.framework/Headers/qpoint.h
FN:282,_ZNK7QPointF1xEv
FN:287,_ZNK7QPointF1yEv
FNDA:0,_ZNK7QPointF1xEv
FNDA:0,_ZNK7QPointF1yEv
FNF:2
FNH:0
DA:284,0
DA:289,0
LF:2
LH:0
end_of_record
SF:/Users/gorankostadinov/Qt/5.5/clang_64/lib/QtCore.framework/Headers/qrefcount.h
FN:59,_ZN9QtPrivate8RefCount5derefEv
FNDA:42,_ZN9QtPrivate8RefCount5derefEv
FNF:1
FNH:1
DA:60,42
DA:62,42
DA:63,0
DA:65,42
DA:66,0
DA:67,42
DA:68,42
LF:7
LH:5
end_of_record
SF:/Users/gorankostadinov/Qt/5.5/clang_64/lib/QtCore.framework/Headers/qstring.h
FN:649,_ZN7QStringC1EPKc
FN:649,_ZN7QStringC2EPKc
FN:1053,_ZN7QStringD2Ev
FN:1053,_ZN7QStringD1Ev
FNDA:56,_ZN7QStringC1EPKc
FNDA:56,_ZN7QStringC2EPKc
FNDA:42,_ZN7QStringD1Ev
FNDA:42,_ZN7QStringD2Ev
FNF:4
FNH:4
DA:650,168
DA:651,168
DA:1053,168
LF:3
LH:3
end_of_record
SF:/Users/gorankostadinov/Qt/5.5/clang_64/lib/QtGui.framework/Headers/qevent.h
FN:119,_ZNK11QMouseEvent8localPosEv
FN:123,_ZNK11QMouseEvent6buttonEv
FNDA:0,_ZNK11QMouseEvent8localPosEv
FNDA:0,_ZNK11QMouseEvent6buttonEv
FNF:2
FNH:0
DA:119,0
DA:123,0
LF:2
LH:0
end_of_record
SF:/Users/gorankostadinov/Qt/5.5/clang_64/lib/QtGui.framework/Headers/qimage.h
FN:261,_ZNO6QImage8mirroredEbb
FNDA:14,_ZNO6QImage8mirroredEbb
FNF:1
FNH:1
DA:262,14
LF:1
LH:1
end_of_record
SF:/Users/gorankostadinov/Qt/5.5/clang_64/lib/QtGui.framework/Headers/qmatrix4x4.h
FN:55,_ZN10QMatrix4x4C1Ev
FN:55,_ZN10QMatrix4x4C2Ev
FN:199,_ZN10QMatrix4x4C2Ei
FN:199,_ZN10QMatrix4x4C1Ei
FN:330,_ZN10QMatrix4x413setToIdentityEv
FN:622,_ZmlRK10QMatrix4x4S1_
FNDA:5155,_ZN10QMatrix4x4C1Ev
FNDA:5155,_ZN10QMatrix4x4C2Ev
FNDA:5141,_ZN10QMatrix4x4C1Ei
FNDA:5141,_ZN10QMatrix4x4C2Ei
FNDA:5169,_ZN10QMatrix4x413setToIdentityEv
FNDA:5141,_ZmlRK10QMatrix4x4S1_
FNF:6
FNH:6
DA:55,10310
DA:199,10282
DA:332,5169
DA:333,5169
DA:334,5169
DA:335,5169
DA:336,5169
DA:337,5169
DA:338,5169
DA:339,5169
DA:340,5169
DA:341,5169
DA:342,5169
DA:343,5169
DA:344,5169
DA:345,5169
DA:346,5169
DA:347,5169
DA:348,5169
DA:349,5169
DA:624,5141
DA:625,5141
DA:626,0
DA:627,0
DA:628,0
DA:629,0
DA:631,0
DA:632,0
DA:633,0
DA:634,0
DA:635,0
DA:638,5141
DA:639,5141
DA:643,5141
DA:647,5141
DA:651,5141
DA:656,5141
DA:660,5141
DA:664,5141
DA:668,5141
DA:673,5141
DA:677,5141
DA:681,5141
DA:685,5141
DA:690,5141
DA:694,5141
DA:698,5141
DA:702,5141
DA:706,5141
DA:707,5141
DA:708,10282
LF:51
LH:42
end_of_record
SF:/Users/gorankostadinov/Qt/5.5/clang_64/lib/QtGui.framework/Headers/qopenglfunctions.h
FN:225,_ZN16QOpenGLFunctionsD2Ev
FN:589,_ZN16QOpenGLFunctions7glClearEj
FN:600,_ZN16QOpenGLFunctions12glClearColorEffff
FN:732,_ZN16QOpenGLFunctions8glEnableEj
FNDA:14,_ZN16QOpenGLFunctionsD2Ev
FNDA:5141,_ZN16QOpenGLFunctions7glClearEj
FNDA:14,_ZN16QOpenGLFunctions12glClearColorEffff
FNDA:28,_ZN16QOpenGLFunctions8glEnableEj
FNF:4
FNH:4
DA:225,14
DA:595,5141
DA:598,5141
DA:606,14
DA:609,14
DA:738,28
DA:741,28
LF:7
LH:7
end_of_record
SF:/Users/gorankostadinov/Qt/5.5/clang_64/lib/QtGui.framework/Headers/qquaternion.h
FN:160,_ZN11QQuaternionC2Ev
FN:160,_ZN11QQuaternionC1Ev
FN:162,_ZN11QQuaternionC1Effff
FN:162,_ZN11QQuaternionC2Effff
FN:241,_ZmlRK11QQuaternionS1_
FNDA:14,_ZN11QQuaternionC1Ev
FNDA:14,_ZN11QQuaternionC2Ev
FNDA:5112,_ZN11QQuaternionC1Effff
FNDA:5112,_ZN11QQuaternionC2Effff
FNDA:5112,_ZmlRK11QQuaternionS1_
FNF:5
FNH:5
DA:160,28
DA:162,10224
DA:243,5112
DA:244,5112
DA:245,5112
DA:246,5112
DA:247,5112
DA:249,5112
DA:250,5112
DA:251,5112
DA:252,5112
DA:254,5112
LF:12
LH:12
end_of_record
SF:/Users/gorankostadinov/Qt/5.5/clang_64/lib/QtGui.framework/Headers/qvector2d.h
FN:127,_ZN9QVector2DC2Ev
FN:127,_ZN9QVector2DC1Ev
FN:129,_ZN9QVector2DC2Eff
FN:129,_ZN9QVector2DC1Eff
FN:133,_ZN9QVector2DC1ERK7QPointF
FN:133,_ZN9QVector2DC2ERK7QPointF
FN:140,_ZNK9QVector2D1xEv
FN:141,_ZNK9QVector2D1yEv
FN:215,_ZmiRK9QVector2DS1_
FNDA:14,_ZN9QVector2DC1Ev
FNDA:14,_ZN9QVector2DC2Ev
FNDA:0,_ZN9QVector2DC1Eff
FNDA:0,_ZN9QVector2DC2Eff
FNDA:0,_ZN9QVector2DC1ERK7QPointF
FNDA:0,_ZN9QVector2DC2ERK7QPointF
FNDA:0,_ZNK9QVector2D1xEv
FNDA:0,_ZNK9QVector2D1yEv
FNDA:0,_ZmiRK9QVector2DS1_
FNF:9
FNH:2
DA:127,28
DA:129,0
DA:133,0
DA:140,0
DA:141,0
DA:217,0
LF:6
LH:1
end_of_record
SF:/Users/gorankostadinov/Qt/5.5/clang_64/lib/QtGui.framework/Headers/qvector3d.h
FN:55,_ZN9QVector3DC2Efff
FN:55,_ZN9QVector3DC1Efff
FN:146,_ZN9QVector3DC2Ev
FN:146,_ZN9QVector3DC1Ev
FN:235,_ZplRK9QVector3DS1_
FN:250,_ZmlRK9QVector3Df
FNDA:56,_ZN9QVector3DC1Efff
FNDA:56,_ZN9QVector3DC2Efff
FNDA:14,_ZN9QVector3DC1Ev
FNDA:14,_ZN9QVector3DC2Ev
FNDA:14,_ZplRK9QVector3DS1_
FNDA:28,_ZmlRK9QVector3Df
FNF:6
FNH:6
DA:55,112
DA:146,28
DA:237,14
DA:252,28
LF:4
LH:4
end_of_record
SF:/Users/gorankostadinov/Workspace/Qt/RightwareDemo/libmain/view_mainwidget.cpp
FN:60,_ZN15View_MainWidgetC1EP7QWidget
FN:60,_ZN15View_MainWidgetC2EP7QWidget
FN:78,_ZN15View_MainWidgetD1Ev
FN:78,_ZN15View_MainWidgetD0Ev
FN:78,_ZThn16_N15View_MainWidgetD0Ev
FN:78,_ZN15View_MainWidgetD2Ev
FN:78,_ZThn16_N15View_MainWidgetD1Ev
FN:85,_ZZN15View_MainWidgetD1EvENK3$_0clEP19View_GeometryEngine
FN:90,_ZN15View_MainWidget13getInfoStringEv
FN:96,_ZN15View_MainWidget11addGeometryEv
FN:102,_ZN15View_MainWidget14removeGeometryEv
FN:111,_ZN15View_MainWidget13geometryCountEv
FN:116,_ZN15View_MainWidget21mouseDoubleClickEventEP11QMouseEvent
FN:123,_ZN15View_MainWidget15mousePressEventEP11QMouseEvent
FN:134,_ZN15View_MainWidget14mouseMoveEventEP11QMouseEvent
FN:159,_ZN15View_MainWidget17mouseReleaseEventEP11QMouseEvent
FN:181,_ZN15View_MainWidget10timerEventEP11QTimerEvent
FN:215,_ZN15View_MainWidget12initializeGLEv
FN:234,_ZN15View_MainWidget11initShadersEv
FN:253,_ZN15View_MainWidget12initTexturesEv
FN:269,_ZN15View_MainWidget8resizeGLEii
FN:284,_ZN15View_MainWidget7paintGLEv
FN:303,_ZZN15View_MainWidget7paintGLEvENK3$_1clEP19View_GeometryEngine
FNDA:14,_ZN15View_MainWidgetC2EP7QWidget
FNDA:14,_ZN15View_MainWidgetC1EP7QWidget
FNDA:14,_ZN15View_MainWidgetD2Ev
FNDA:14,_ZN15View_MainWidgetD1Ev
FNDA:0,_ZThn16_N15View_MainWidgetD1Ev
FNDA:14,_ZN15View_MainWidgetD0Ev
FNDA:0,_ZThn16_N15View_MainWidgetD0Ev
FNDA:7,_ZZN15View_MainWidgetD1EvENK3$_0clEP19View_GeometryEngine
FNDA:14,_ZN15View_MainWidget13getInfoStringEv
FNDA:70,_ZN15View_MainWidget11addGeometryEv
FNDA:63,_ZN15View_MainWidget14removeGeometryEv
FNDA:322,_ZN15View_MainWidget13geometryCountEv
FNDA:0,_ZN15View_MainWidget21mouseDoubleClickEventEP11QMouseEvent
FNDA:0,_ZN15View_MainWidget15mousePressEventEP11QMouseEvent
FNDA:0,_ZN15View_MainWidget14mouseMoveEventEP11QMouseEvent
FNDA:0,_ZN15View_MainWidget17mouseReleaseEventEP11QMouseEvent
FNDA:5112,_ZN15View_MainWidget10timerEventEP11QTimerEvent
FNDA:14,_ZN15View_MainWidget12initializeGLEv
FNDA:14,_ZN15View_MainWidget11initShadersEv
FNDA:14,_ZN15View_MainWidget12initTexturesEv
FNDA:14,_ZN15View_MainWidget8resizeGLEii
FNDA:5141,_ZN15View_MainWidget7paintGLEv
FNDA:10165,_ZZN15View_MainWidget7paintGLEvENK3$_1clEP19View_GeometryEngine
FNF:23
FNH:17
DA:65,112
DA:67,28
DA:70,42
DA:73,14
DA:75,70
DA:76,28
DA:79,42
DA:82,14
DA:84,28
DA:85,35
DA:87,14
DA:88,42
DA:92,14
DA:98,140
DA:99,70
DA:100,70
DA:104,63
DA:106,63
DA:107,63
DA:108,63
DA:109,63
DA:113,322
DA:119,0
DA:120,0
DA:121,0
DA:126,0
DA:127,0
DA:130,0
DA:131,0
DA:132,0
DA:136,0
DA:139,0
DA:143,0
DA:146,0
DA:149,0
DA:151,0
DA:153,0
DA:155,0
DA:156,0
DA:157,0
DA:161,0
DA:164,0
DA:168,0
DA:171,0
DA:174,0
DA:177,0
DA:178,0
DA:179,0
DA:183,5112
DA:186,5112
DA:189,0
DA:190,0
DA:191,5112
DA:192,0
DA:194,0
DA:195,0
DA:196,0
DA:202,0
DA:203,0
DA:204,0
DA:208,5112
DA:211,5112
DA:212,5112
DA:213,5112
DA:217,14
DA:219,14
DA:221,14
DA:222,14
DA:225,14
DA:228,14
DA:231,14
DA:232,14
DA:237,28
DA:238,0
DA:241,28
DA:242,0
DA:245,14
DA:246,0
DA:249,14
DA:250,0
DA:251,14
DA:256,70
DA:259,14
DA:262,14
DA:266,14
DA:267,14
DA:272,14
DA:278,14
DA:281,14
DA:282,14
DA:287,5141
DA:289,5141
DA:292,5141
DA:293,5141
DA:294,5141
DA:297,5141
DA:300,5141
DA:303,15306
DA:305,5141
DA:306,5141
LF:100
LH:61
end_of_record
TN:
SF:/Users/gorankostadinov/Qt/5.5/clang_64/lib/QtCore.framework/Headers/qarraydata.h
FN:116,_ZN10QArrayData10sharedNullEv
FN:219,_ZN15QTypedArrayDataItE10deallocateEP10QArrayData
FN:240,_ZN15QTypedArrayDataItE10sharedNullEv
FNDA:229,_ZN10QArrayData10sharedNullEv
FNDA:261,_ZN15QTypedArrayDataItE10deallocateEP10QArrayData
FNDA:229,_ZN15QTypedArrayDataItE10sharedNullEv
FNF:3
FNH:3
DA:116,229
DA:222,261
DA:223,261
DA:243,229
LF:4
LH:4
end_of_record
SF:/Users/gorankostadinov/Qt/5.5/clang_64/lib/QtCore.framework/Headers/qatomic_x86.h
FN:173,_ZN15QBasicAtomicOpsILi4EE3refIiEEbRT_
FN:211,_ZN15QBasicAtomicOpsILi4EE5derefIiEEbRT_
FNDA:14,_ZN15QBasicAtomicOpsILi4EE3refIiEEbRT_
FNDA:584,_ZN15QBasicAtomicOpsILi4EE5derefIiEEbRT_
FNF:2
FNH:2
DA:176,14
DA:182,14
DA:214,584
DA:220,584
LF:4
LH:4
end_of_record
SF:/Users/gorankostadinov/Qt/5.5/clang_64/lib/QtCore.framework/Headers/qbasicatomic.h
FN:118,_ZNK19QBasicAtomicIntegerIiE4loadEv
FN:129,_ZN19QBasicAtomicIntegerIiE3refEv
FN:130,_ZN19QBasicAtomicIntegerIiE5derefEv
FNDA:850,_ZNK19QBasicAtomicIntegerIiE4loadEv
FNDA:14,_ZN19QBasicAtomicIntegerIiE3refEv
FNDA:584,_ZN19QBasicAtomicIntegerIiE5derefEv
FNF:3
FNH:3
DA:118,850
DA:129,14
DA:130,584
LF:3
LH:3
end_of_record
SF:/Users/gorankostadinov/Qt/5.5/clang_64/lib/QtCore.framework/Headers/qflags.h
FN:112,_ZN6QFlagsIN2Qt13AlignmentFlagEEC2EMNS2_7PrivateEi
FN:112,_ZN6QFlagsIN2Qt10WindowTypeEEC1EMNS2_7PrivateEi
FN:112,_ZN6QFlagsIN2Qt10WindowTypeEEC2EMNS2_7PrivateEi
FN:112,_ZN6QFlagsIN2Qt13AlignmentFlagEEC1EMNS2_7PrivateEi
FNDA:224,_ZN6QFlagsIN2Qt13AlignmentFlagEEC1EMNS2_7PrivateEi
FNDA:224,_ZN6QFlagsIN2Qt13AlignmentFlagEEC2EMNS2_7PrivateEi
FNDA:84,_ZN6QFlagsIN2Qt10WindowTypeEEC1EMNS2_7PrivateEi
FNDA:84,_ZN6QFlagsIN2Qt10WindowTypeEEC2EMNS2_7PrivateEi
FNF:4
FNH:4
DA:112,616
LF:1
LH:1
end_of_record
SF:/Users/gorankostadinov/Qt/5.5/clang_64/lib/QtCore.framework/Headers/qgenericatomic.h
FN:88,_ZN17QGenericAtomicOpsI15QBasicAtomicOpsILi4EEE4loadIiEET_RKS4_
FNDA:850,_ZN17QGenericAtomicOpsI15QBasicAtomicOpsILi4EEE4loadIiEET_RKS4_
FNF:1
FNH:1
DA:90,850
LF:1
LH:1
end_of_record
SF:/Users/gorankostadinov/Qt/5.5/clang_64/lib/QtCore.framework/Headers/qrect.h
FN:50,_ZN5QRectC1Ev
FN:50,_ZN5QRectC2Ev
FNDA:56,_ZN5QRectC1Ev
FNDA:56,_ZN5QRectC2Ev
FNF:2
FNH:2
DA:50,112
LF:1
LH:1
end_of_record
SF:/Users/gorankostadinov/Qt/5.5/clang_64/lib/QtCore.framework/Headers/qrefcount.h
FN:48,_ZN9QtPrivate8RefCount3refEv
FN:59,_ZN9QtPrivate8RefCount5derefEv
FNDA:14,_ZN9QtPrivate8RefCount3refEv
FNDA:836,_ZN9QtPrivate8RefCount5derefEv
FNF:2
FNH:2
DA:49,14
DA:51,14
DA:52,0
DA:54,14
DA:55,14
DA:56,14
DA:57,14
DA:60,836
DA:62,836
DA:63,0
DA:65,836
DA:66,252
DA:67,584
DA:68,836
LF:14
LH:12
end_of_record
SF:/Users/gorankostadinov/Qt/5.5/clang_64/lib/QtCore.framework/Headers/qsize.h
FN:105,_ZN5QSizeC1Eii
FN:105,_ZN5QSizeC2Eii
FNDA:14,_ZN5QSizeC1Eii
FNDA:14,_ZN5QSizeC2Eii
FNF:2
FNH:2
DA:105,28
LF:1
LH:1
end_of_record
SF:/Users/gorankostadinov/Qt/5.5/clang_64/lib/QtCore.framework/Headers/qstring.h
FN:196,_ZNK17QStaticStringDataILi10EE8data_ptrEv
FN:196,_ZNK17QStaticStringDataILi13EE8data_ptrEv
FN:196,_ZNK17QStaticStringDataILi18EE8data_ptrEv
FN:196,_ZNK17QStaticStringDataILi16EE8data_ptrEv
FN:196,_ZNK17QStaticStringDataILi8EE8data_ptrEv
FN:196,_ZNK17QStaticStringDataILi6EE8data_ptrEv
FN:196,_ZNK17QStaticStringDataILi12EE8data_ptrEv
FN:196,_ZNK17QStaticStringDataILi14EE8data_ptrEv
FN:196,_ZNK17QStaticStringDataILi9EE8data_ptrEv
FN:196,_ZNK17QStaticStringDataILi5EE8data_ptrEv
FN:442,_ZN7QStringpLERKS_
FN:528,_ZN7QString8fromUtf8EPKci
FN:765,_ZN7QStringC2E14QStringDataPtr
FN:765,_ZN7QStringC1E14QStringDataPtr
FN:856,_ZNK7QString7isEmptyEv
FN:877,_ZN7QStringC2ERKS_
FN:877,_ZN7QStringC1ERKS_
FN:885,_ZN7QString6setNumEii
FN:893,_ZN7QString6setNumEfci
FN:1052,_ZN7QStringC1Ev
FN:1052,_ZN7QStringC2Ev
FN:1053,_ZN7QStringD1Ev
FN:1053,_ZN7QStringD2Ev
FN:1260,_ZplRK7QStringS1_
FN:1267,_ZplRK7QStringPKc
FN:1269,_ZplPKcRK7QString
FNDA:28,_ZNK17QStaticStringDataILi9EE8data_ptrEv
FNDA:28,_ZNK17QStaticStringDataILi12EE8data_ptrEv
FNDA:28,_ZNK17QStaticStringDataILi10EE8data_ptrEv
FNDA:14,_ZNK17QStaticStringDataILi5EE8data_ptrEv
FNDA:28,_ZNK17QStaticStringDataILi6EE8data_ptrEv
FNDA:28,_ZNK17QStaticStringDataILi14EE8data_ptrEv
FNDA:14,_ZNK17QStaticStringDataILi8EE8data_ptrEv
FNDA:42,_ZNK17QStaticStringDataILi16EE8data_ptrEv
FNDA:14,_ZNK17QStaticStringDataILi18EE8data_ptrEv
FNDA:14,_ZNK17QStaticStringDataILi13EE8data_ptrEv
FNDA:229,_ZN7QStringpLERKS_
FNDA:215,_ZN7QString8fromUtf8EPKci
FNDA:238,_ZN7QStringC1E14QStringDataPtr
FNDA:238,_ZN7QStringC2E14QStringDataPtr
FNDA:14,_ZNK7QString7isEmptyEv
FNDA:14,_ZN7QStringC1ERKS_
FNDA:14,_ZN7QStringC2ERKS_
FNDA:133,_ZN7QString6setNumEii
FNDA:96,_ZN7QString6setNumEfci
FNDA:229,_ZN7QStringC1Ev
FNDA:229,_ZN7QStringC2Ev
FNDA:836,_ZN7QStringD1Ev
FNDA:836,_ZN7QStringD2Ev
FNDA:14,_ZplRK7QStringS1_
FNDA:0,_ZplRK7QStringPKc
FNDA:215,_ZplPKcRK7QString
FNF:26
FNH:25
DA:199,238
DA:442,229
DA:530,645
DA:765,476
DA:857,14
DA:878,28
DA:886,133
DA:894,96
DA:1052,458
DA:1053,2769
DA:1261,42
DA:1268,0
DA:1270,645
LF:13
LH:12
end_of_record
SF:/Users/gorankostadinov/Qt/5.5/clang_64/lib/QtWidgets.framework/Headers/qlayoutitem.h
FN:82,_ZN11QLayoutItemC2E6QFlagsIN2Qt13AlignmentFlagEE
FN:88,_ZN11QSpacerItemC2EiiN11QSizePolicy6PolicyES1_
FN:88,_ZN11QSpacerItemC1EiiN11QSizePolicy6PolicyES1_
FNDA:56,_ZN11QLayoutItemC2E6QFlagsIN2Qt13AlignmentFlagEE
FNDA:56,_ZN11QSpacerItemC1EiiN11QSizePolicy6PolicyES1_
FNDA:56,_ZN11QSpacerItemC2EiiN11QSizePolicy6PolicyES1_
FNF:3
FNH:3
DA:83,56
DA:91,168
LF:2
LH:2
end_of_record
SF:/Users/gorankostadinov/Qt/5.5/clang_64/lib/QtWidgets.framework/Headers/qsizepolicy.h
FN:89,_ZN11QSizePolicyC1ENS_6PolicyES0_NS_11ControlTypeE
FN:89,_ZN11QSizePolicyC2ENS_6PolicyES0_NS_11ControlTypeE
FNDA:56,_ZN11QSizePolicyC1ENS_6PolicyES0_NS_11ControlTypeE
FNDA:56,_ZN11QSizePolicyC2ENS_6PolicyES0_NS_11ControlTypeE
FNF:2
FNH:2
DA:90,56
DA:91,56
DA:92,56
DA:93,56
DA:94,112
LF:5
LH:5
end_of_record
SF:/Users/gorankostadinov/Qt/5.5/clang_64/lib/QtWidgets.framework/Headers/qwidget.h
FN:824,_ZN7QWidget6resizeEii
FNDA:14,_ZN7QWidget6resizeEii
FNF:1
FNH:1
DA:825,14
LF:1
LH:1
end_of_record
SF:/Users/gorankostadinov/Workspace/Qt/RightwareDemo/libmain/iview.h
FN:14,_ZN5IViewC2Ev
FNDA:14,_ZN5IViewC2Ev
FNF:1
FNH:1
DA:14,14
LF:1
LH:1
end_of_record
SF:/Users/gorankostadinov/Workspace/Qt/RightwareDemo/libmain/view_mainwidget.h
FN:83,_ZN15View_MainWidget25setAnimationMovementStateEb
FN:84,_ZN15View_MainWidget25getAnimationMovementStateEv
FNDA:0,_ZN15View_MainWidget25setAnimationMovementStateEb
FNDA:0,_ZN15View_MainWidget25getAnimationMovementStateEv
FNF:2
FNH:0
DA:83,0
DA:84,0
LF:2
LH:0
end_of_record
SF:/Users/gorankostadinov/Workspace/Qt/RightwareDemo/libmain/view_mainwindow.cpp
FN:13,_ZN15View_MainWindowC2EP7QWidget
FN:13,_ZN15View_MainWindowC1EP7QWidget
FN:25,_ZN15View_MainWindowD0Ev
FN:25,_ZThn16_N15View_MainWindowD0Ev
FN:25,_ZN15View_MainWindowD1Ev
FN:25,_ZThn16_N15View_MainWindowD1Ev
FN:25,_ZN15View_MainWindowD2Ev
FN:33,_ZN15View_MainWindow10updateDoneEv
FN:38,_ZN15View_MainWindow13pbtAddPressedEv
FN:43,_ZN15View_MainWindow16pbtRemovePressedEv
FN:48,_ZN15View_MainWindow19pbtStartStopPressedEv
FN:53,_ZN15View_MainWindow13geometryAddedEv
FN:53,_ZThn208_N15View_MainWindow13geometryAddedEv
FN:60,_ZN15View_MainWindow15geometryRemovedEv
FN:60,_ZThn208_N15View_MainWindow15geometryRemovedEv
FN:67,_ZN15View_MainWindow17setLabelCountTextEv
FN:74,_ZThn208_N15View_MainWindow10fpsChangedEf
FN:74,_ZN15View_MainWindow10fpsChangedEf
FN:82,_ZThn208_N15View_MainWindow18startupTimeChangedEx
FN:82,_ZN15View_MainWindow18startupTimeChangedEx
FNDA:14,_ZN15View_MainWindowC2EP7QWidget
FNDA:14,_ZN15View_MainWindowC1EP7QWidget
FNDA:14,_ZN15View_MainWindowD2Ev
FNDA:14,_ZN15View_MainWindowD1Ev
FNDA:0,_ZThn16_N15View_MainWindowD1Ev
FNDA:14,_ZN15View_MainWindowD0Ev
FNDA:0,_ZThn16_N15View_MainWindowD0Ev
FNDA:5141,_ZN15View_MainWindow10updateDoneEv
FNDA:70,_ZN15View_MainWindow13pbtAddPressedEv
FNDA:63,_ZN15View_MainWindow16pbtRemovePressedEv
FNDA:0,_ZN15View_MainWindow19pbtStartStopPressedEv
FNDA:70,_ZN15View_MainWindow13geometryAddedEv
FNDA:0,_ZThn208_N15View_MainWindow13geometryAddedEv
FNDA:63,_ZN15View_MainWindow15geometryRemovedEv
FNDA:0,_ZThn208_N15View_MainWindow15geometryRemovedEv
FNDA:133,_ZN15View_MainWindow17setLabelCountTextEv
FNDA:82,_ZN15View_MainWindow10fpsChangedEf
FNDA:0,_ZThn208_N15View_MainWindow10fpsChangedEf
FNDA:14,_ZN15View_MainWindow18startupTimeChangedEx
FNDA:0,_ZThn208_N15View_MainWindow18startupTimeChangedEx
FNF:20
FNH:13
DA:15,14
DA:16,14
DA:19,28
DA:20,28
DA:21,28
DA:22,28
DA:23,28
DA:26,42
DA:27,14
DA:28,14
DA:29,14
DA:30,14
DA:31,42
DA:35,5141
DA:36,5141
DA:40,70
DA:41,70
DA:45,63
DA:46,63
DA:50,0
DA:51,0
DA:55,70
DA:57,70
DA:58,70
DA:62,63
DA:64,63
DA:65,63
DA:69,133
DA:70,266
DA:71,399
DA:72,133
DA:76,82
DA:77,82
DA:79,246
DA:80,82
DA:84,14
DA:86,14
DA:87,14
DA:89,70
DA:90,14
LF:40
LH:38
end_of_record
SF:/Users/gorankostadinov/Workspace/Qt/RightwareDemo/Binaries/Release/test/ui_view_mainwindow.h
FN:55,_ZN13Ui_MainWindow7setupUiEP11QMainWindow
FN:58,_ZZN13Ui_MainWindow7setupUiEP11QMainWindowENKUlvE_clEv
FN:61,_ZZN13Ui_MainWindow7setupUiEP11QMainWindowENKUlvE0_clEv
FN:63,_ZZN13Ui_MainWindow7setupUiEP11QMainWindowENKUlvE1_clEv
FN:65,_ZZN13Ui_MainWindow7setupUiEP11QMainWindowENKUlvE2_clEv
FN:67,_ZZN13Ui_MainWindow7setupUiEP11QMainWindowENKUlvE3_clEv
FN:69,_ZZN13Ui_MainWindow7setupUiEP11QMainWindowENKUlvE4_clEv
FN:71,_ZZN13Ui_MainWindow7setupUiEP11QMainWindowENKUlvE5_clEv
FN:76,_ZZN13Ui_MainWindow7setupUiEP11QMainWindowENKUlvE6_clEv
FN:81,_ZZN13Ui_MainWindow7setupUiEP11QMainWindowENKUlvE7_clEv
FN:89,_ZZN13Ui_MainWindow7setupUiEP11QMainWindowENKUlvE8_clEv
FN:91,_ZZN13Ui_MainWindow7setupUiEP11QMainWindowENKUlvE9_clEv
FN:97,_ZZN13Ui_MainWindow7setupUiEP11QMainWindowENKUlvE10_clEv
FN:102,_ZZN13Ui_MainWindow7setupUiEP11QMainWindowENKUlvE11_clEv
FN:113,_ZZN13Ui_MainWindow7setupUiEP11QMainWindowENKUlvE12_clEv
FN:117,_ZZN13Ui_MainWindow7setupUiEP11QMainWindowENKUlvE13_clEv
FN:127,_ZZN13Ui_MainWindow7setupUiEP11QMainWindowENKUlvE14_clEv
FN:147,_ZZN13Ui_MainWindow7setupUiEP11QMainWindowENKUlvE15_clEv
FN:155,_ZN13Ui_MainWindow13retranslateUiEP11QMainWindow
FNDA:14,_ZN13Ui_MainWindow7setupUiEP11QMainWindow
FNDA:14,_ZZN13Ui_MainWindow7setupUiEP11QMainWindowENKUlvE_clEv
FNDA:14,_ZZN13Ui_MainWindow7setupUiEP11QMainWindowENKUlvE0_clEv
FNDA:14,_ZZN13Ui_MainWindow7setupUiEP11QMainWindowENKUlvE1_clEv
FNDA:14,_ZZN13Ui_MainWindow7setupUiEP11QMainWindowENKUlvE2_clEv
FNDA:14,_ZZN13Ui_MainWindow7setupUiEP11QMainWindowENKUlvE3_clEv
FNDA:14,_ZZN13Ui_MainWindow7setupUiEP11QMainWindowENKUlvE4_clEv
FNDA:14,_ZZN13Ui_MainWindow7setupUiEP11QMainWindowENKUlvE5_clEv
FNDA:14,_ZZN13Ui_MainWindow7setupUiEP11QMainWindowENKUlvE6_clEv
FNDA:14,_ZZN13Ui_MainWindow7setupUiEP11QMainWindowENKUlvE7_clEv
FNDA:14,_ZZN13Ui_MainWindow7setupUiEP11QMainWindowENKUlvE8_clEv
FNDA:14,_ZZN13Ui_MainWindow7setupUiEP11QMainWindowENKUlvE9_clEv
FNDA:14,_ZZN13Ui_MainWindow7setupUiEP11QMainWindowENKUlvE10_clEv
FNDA:14,_ZZN13Ui_MainWindow7setupUiEP11QMainWindowENKUlvE11_clEv
FNDA:14,_ZZN13Ui_MainWindow7setupUiEP11QMainWindowENKUlvE12_clEv
FNDA:14,_ZZN13Ui_MainWindow7setupUiEP11QMainWindowENKUlvE13_clEv
FNDA:14,_ZZN13Ui_MainWindow7setupUiEP11QMainWindowENKUlvE14_clEv
FNDA:14,_ZZN13Ui_MainWindow7setupUiEP11QMainWindowENKUlvE15_clEv
FNDA:14,_ZN13Ui_MainWindow13retranslateUiEP11QMainWindow
FNF:19
FNH:19
DA:57,14
DA:58,56
DA:59,14
DA:60,28
DA:61,56
DA:62,28
DA:63,56
DA:64,28
DA:65,56
DA:66,28
DA:67,56
DA:68,28
DA:69,56
DA:70,28
DA:71,56
DA:73,14
DA:75,28
DA:76,56
DA:78,14
DA:80,28
DA:81,56
DA:83,14
DA:86,14
DA:88,28
DA:89,56
DA:90,28
DA:91,56
DA:92,14
DA:94,14
DA:96,28
DA:97,56
DA:99,14
DA:101,28
DA:102,56
DA:104,14
DA:107,14
DA:110,14
DA:112,28
DA:113,56
DA:114,14
DA:115,14
DA:116,28
DA:117,56
DA:118,28
DA:120,14
DA:122,28
DA:124,14
DA:126,28
DA:127,56
DA:129,14
DA:131,28
DA:133,14
DA:135,28
DA:137,14
DA:140,14
DA:143,14
DA:145,14
DA:146,28
DA:147,56
DA:148,14
DA:150,14
DA:152,14
DA:153,14
DA:157,28
DA:158,28
DA:159,28
DA:160,28
DA:161,28
DA:162,28
DA:163,28
DA:164,14
LF:71
LH:71
end_of_record
TN:
SF:/Users/gorankostadinov/Qt/5.5/clang_64/lib/QtCore.framework/Headers/qelapsedtimer.h
FN:53,_ZN13QElapsedTimerC1Ev
FN:53,_ZN13QElapsedTimerC2Ev
FNDA:28,_ZN13QElapsedTimerC1Ev
FNDA:28,_ZN13QElapsedTimerC2Ev
FNF:2
FNH:2
DA:56,28
DA:57,56
LF:2
LH:2
end_of_record
SF:/Users/gorankostadinov/Qt/5.5/clang_64/lib/QtCore.framework/Headers/qflags.h
FN:111,_ZN6QFlagsIN10QEventLoop17ProcessEventsFlagEEC1ES1_
FN:111,_ZN6QFlagsIN10QEventLoop17ProcessEventsFlagEEC2ES1_
FNDA:28,_ZN6QFlagsIN10QEventLoop17ProcessEventsFlagEEC1ES1_
FNDA:28,_ZN6QFlagsIN10QEventLoop17ProcessEventsFlagEEC2ES1_
FNF:2
FNH:2
DA:111,56
LF:1
LH:1
end_of_record
SF:/Users/gorankostadinov/Qt/5.5/clang_64/lib/QtTest.framework/Headers/qtestsystem.h
FN:51,_ZN5QTestL5qWaitEi
FNDA:28,_ZN5QTestL5qWaitEi
FNF:1
FNH:1
DA:55,28
DA:56,28
DA:57,28
DA:58,28
DA:59,28
DA:60,28
DA:61,28
DA:62,28
LF:8
LH:8
end_of_record
SF:/Users/gorankostadinov/Workspace/Qt/RightwareDemo/test/waitforupdatedone.cpp
FN:18,__cxx_global_var_init
FN:20,_ZN17WaitForUpdateDoneC2EP7QObject
FN:20,_ZN17WaitForUpdateDoneC1EP7QObject
FN:26,_ZN17WaitForUpdateDone18graphicsUpdateDoneEv
FN:31,_ZN17WaitForUpdateDone12waitForEventEv
FNDA:7,__cxx_global_var_init
FNDA:7,_ZN17WaitForUpdateDoneC2EP7QObject
FNDA:7,_ZN17WaitForUpdateDoneC1EP7QObject
FNDA:5113,_ZN17WaitForUpdateDone18graphicsUpdateDoneEv
FNDA:49,_ZN17WaitForUpdateDone12waitForEventEv
FNF:5
FNH:5
DA:18,7
DA:23,7
DA:24,14
DA:28,5113
DA:29,5113
DA:36,182
DA:38,28
DA:40,49
DA:41,49
LF:9
LH:9
end_of_record
SF:/Users/gorankostadinov/Workspace/Qt/RightwareDemo/test/waitforupdatedone.h
FN:15,_ZN17WaitForUpdateDoneD2Ev
FN:15,_ZN17WaitForUpdateDoneD1Ev
FNDA:7,_ZN17WaitForUpdateDoneD1Ev
FNDA:7,_ZN17WaitForUpdateDoneD2Ev
FNF:2
FNH:2
DA:15,14
LF:1
LH:1
end_of_record
TN:
SF:/Users/gorankostadinov/Qt/5.5/clang_64/lib/QtCore.framework/Headers/qarraydata.h
FN:51,_ZN10QArrayData4dataEv
FN:93,_ZNK10QArrayData11detachFlagsEv
FN:199,_ZN15QTypedArrayDataIcE4dataEv
FN:219,_ZN15QTypedArrayDataItE10deallocateEP10QArrayData
FN:219,_ZN15QTypedArrayDataIcE10deallocateEP10QArrayData
FNDA:14,_ZN10QArrayData4dataEv
FNDA:0,_ZNK10QArrayData11detachFlagsEv
FNDA:14,_ZN15QTypedArrayDataIcE4dataEv
FNDA:7,_ZN15QTypedArrayDataIcE10deallocateEP10QArrayData
FNDA:147,_ZN15QTypedArrayDataItE10deallocateEP10QArrayData
FNF:5
FNH:4
DA:55,14
DA:95,0
DA:96,0
DA:97,0
DA:98,0
DA:199,14
DA:222,154
DA:223,154
LF:8
LH:4
end_of_record
SF:/Users/gorankostadinov/Qt/5.5/clang_64/lib/QtCore.framework/Headers/qatomic_x86.h
FN:173,_ZN15QBasicAtomicOpsILi4EE3refIiEEbRT_
FN:211,_ZN15QBasicAtomicOpsILi4EE5derefIiEEbRT_
FNDA:105,_ZN15QBasicAtomicOpsILi4EE3refIiEEbRT_
FNDA:280,_ZN15QBasicAtomicOpsILi4EE5derefIiEEbRT_
FNF:2
FNH:2
DA:176,105
DA:182,105
DA:214,280
DA:220,280
LF:4
LH:4
end_of_record
SF:/Users/gorankostadinov/Qt/5.5/clang_64/lib/QtCore.framework/Headers/qbasicatomic.h
FN:118,_ZNK19QBasicAtomicIntegerIiE4loadEv
FN:129,_ZN19QBasicAtomicIntegerIiE3refEv
FN:130,_ZN19QBasicAtomicIntegerIiE5derefEv
FNDA:385,_ZNK19QBasicAtomicIntegerIiE4loadEv
FNDA:105,_ZN19QBasicAtomicIntegerIiE3refEv
FNDA:280,_ZN19QBasicAtomicIntegerIiE5derefEv
FNF:3
FNH:3
DA:118,385
DA:129,105
DA:130,280
LF:3
LH:3
end_of_record
SF:/Users/gorankostadinov/Qt/5.5/clang_64/lib/QtCore.framework/Headers/qbytearray.h
FN:70,_Z8qstrnlenPKcj
FN:459,_ZN10QByteArrayD1Ev
FN:459,_ZN10QByteArrayD2Ev
FN:460,_ZNK10QByteArray4sizeEv
FN:478,_ZN10QByteArray4dataEv
FN:482,_ZNK10QByteArray9constDataEv
FN:484,_ZN10QByteArray6detachEv
FNDA:7,_Z8qstrnlenPKcj
FNDA:7,_ZN10QByteArrayD1Ev
FNDA:7,_ZN10QByteArrayD2Ev
FNDA:7,_ZNK10QByteArray4sizeEv
FNDA:0,_ZN10QByteArray4dataEv
FNDA:14,_ZNK10QByteArray9constDataEv
FNDA:0,_ZN10QByteArray6detachEv
FNF:7
FNH:5
DA:73,7
DA:74,32032
DA:75,10675
DA:77,7
DA:459,28
DA:461,7
DA:479,0
DA:483,14
DA:485,0
LF:9
LH:7
end_of_record
SF:/Users/gorankostadinov/Qt/5.5/clang_64/lib/QtCore.framework/Headers/qflags.h
FN:52,_ZN5QFlagC2Ei
FN:52,_ZN5QFlagC1Ei
FN:53,_ZNK5QFlagcviEv
FN:111,_ZN6QFlagsIN9QIODevice12OpenModeFlagEEC1ES1_
FN:111,_ZN6QFlagsIN9QIODevice12OpenModeFlagEEC2ES1_
FN:112,_ZN6QFlagsIN10QArrayData16AllocationOptionEEC2EMNS2_7PrivateEi
FN:112,_ZN6QFlagsIN10QArrayData16AllocationOptionEEC1EMNS2_7PrivateEi
FN:113,_ZN6QFlagsIN9QIODevice12OpenModeFlagEEC2E5QFlag
FN:113,_ZN6QFlagsIN9QIODevice12OpenModeFlagEEC1E5QFlag
FN:124,_ZN6QFlagsIN10QArrayData16AllocationOptionEEoRES1_
FN:131,_ZNK6QFlagsIN9QIODevice12OpenModeFlagEEorES1_
FNDA:7,_ZN5QFlagC1Ei
FNDA:7,_ZN5QFlagC2Ei
FNDA:7,_ZNK5QFlagcviEv
FNDA:21,_ZN6QFlagsIN9QIODevice12OpenModeFlagEEC1ES1_
FNDA:21,_ZN6QFlagsIN9QIODevice12OpenModeFlagEEC2ES1_
FNDA:0,_ZN6QFlagsIN10QArrayData16AllocationOptionEEC1EMNS2_7PrivateEi
FNDA:0,_ZN6QFlagsIN10QArrayData16AllocationOptionEEC2EMNS2_7PrivateEi
FNDA:7,_ZN6QFlagsIN9QIODevice12OpenModeFlagEEC1E5QFlag
FNDA:7,_ZN6QFlagsIN9QIODevice12OpenModeFlagEEC2E5QFlag
FNDA:0,_ZN6QFlagsIN10QArrayData16AllocationOptionEEoRES1_
FNDA:7,_ZNK6QFlagsIN9QIODevice12OpenModeFlagEEorES1_
FNF:11
FNH:8
DA:52,14
DA:53,7
DA:111,42
DA:112,0
DA:113,14
DA:124,0
DA:131,7
LF:7
LH:5
end_of_record
SF:/Users/gorankostadinov/Qt/5.5/clang_64/lib/QtCore.framework/Headers/qgenericatomic.h
FN:88,_ZN17QGenericAtomicOpsI15QBasicAtomicOpsILi4EEE4loadIiEET_RKS4_
FNDA:385,_ZN17QGenericAtomicOpsI15QBasicAtomicOpsILi4EEE4loadIiEET_RKS4_
FNF:1
FNH:1
DA:90,385
LF:1
LH:1
end_of_record
SF:/Users/gorankostadinov/Qt/5.5/clang_64/lib/QtCore.framework/Headers/qiodevice.h
FN:162,_ZorN9QIODevice12OpenModeFlagES0_
FNDA:7,_ZorN9QIODevice12OpenModeFlagES0_
FNF:1
FNH:1
DA:162,7
LF:1
LH:1
end_of_record
SF:/Users/gorankostadinov/Qt/5.5/clang_64/lib/QtCore.framework/Headers/qrefcount.h
FN:48,_ZN9QtPrivate8RefCount3refEv
FN:59,_ZN9QtPrivate8RefCount5derefEv
FN:93,_ZNK9QtPrivate8RefCount8isSharedEv
FNDA:105,_ZN9QtPrivate8RefCount3refEv
FNDA:280,_ZN9QtPrivate8RefCount5derefEv
FNDA:0,_ZNK9QtPrivate8RefCount8isSharedEv
FNF:3
FNH:2
DA:49,105
DA:51,105
DA:52,0
DA:54,105
DA:55,105
DA:56,105
DA:57,105
DA:60,280
DA:62,280
DA:63,0
DA:65,280
DA:66,0
DA:67,280
DA:68,280
DA:95,0
DA:96,0
LF:16
LH:11
end_of_record
SF:/Users/gorankostadinov/Qt/5.5/clang_64/lib/QtCore.framework/Headers/qstring.h
FN:442,_ZN7QStringpLERKS_
FN:505,_ZNO7QString8toLatin1Ev
FN:528,_ZN7QString8fromUtf8EPKci
FN:649,_ZN7QStringC2EPKc
FN:649,_ZN7QStringC1EPKc
FN:652,_ZN7QStringC1ERK10QByteArray
FN:652,_ZN7QStringC2ERK10QByteArray
FN:671,_ZN7QStringpLEPKc
FN:877,_ZN7QStringC2ERKS_
FN:877,_ZN7QStringC1ERKS_
FN:1053,_ZN7QStringD1Ev
FN:1053,_ZN7QStringD2Ev
FN:1260,_ZplRK7QStringS1_
FN:1267,_ZplRK7QStringPKc
FN:1269,_ZplPKcRK7QString
FNDA:7,_ZN7QStringpLERKS_
FNDA:0,_ZNO7QString8toLatin1Ev
FNDA:7,_ZN7QString8fromUtf8EPKci
FNDA:35,_ZN7QStringC1EPKc
FNDA:35,_ZN7QStringC2EPKc
FNDA:7,_ZN7QStringC1ERK10QByteArray
FNDA:7,_ZN7QStringC2ERK10QByteArray
FNDA:7,_ZN7QStringpLEPKc
FNDA:105,_ZN7QStringC1ERKS_
FNDA:105,_ZN7QStringC2ERKS_
FNDA:273,_ZN7QStringD1Ev
FNDA:273,_ZN7QStringD2Ev
FNDA:7,_ZplRK7QStringS1_
FNDA:0,_ZplRK7QStringPKc
FNDA:0,_ZplPKcRK7QString
FNF:15
FNH:12
DA:442,7
DA:506,0
DA:530,21
DA:650,105
DA:651,105
DA:653,7
DA:654,21
DA:672,14
DA:878,210
DA:1053,966
DA:1261,21
DA:1268,0
DA:1270,0
LF:13
LH:10
end_of_record
SF:/Users/gorankostadinov/Workspace/Qt/RightwareDemo/test/xmltestreport.cpp
FN:18,__cxx_global_var_init
FN:20,_ZN13XmlTestReportC1Ev
FN:20,_ZN13XmlTestReportC2Ev
FN:25,_ZN13XmlTestReportD1Ev
FN:25,_ZN13XmlTestReportD0Ev
FN:25,_ZN13XmlTestReportD2Ev
FN:30,_ZN13XmlTestReport17getNewXmlFileNameEv
FN:38,_ZNK13XmlTestReport14getXslFileNameEv
FN:43,_ZN13XmlTestReport10openReportEv
FN:67,_ZN13XmlTestReport11closeReportEv
FN:87,_ZN13XmlTestReport18generateHTMLReportEv
FN:130,_ZN13XmlTestReport10addElementE7QString
FN:135,_ZN13XmlTestReport12closeElementEv
FN:140,_ZN13XmlTestReport22addElementAndAttributeE7QStringS0_fib
FN:148,_ZN13XmlTestReport22addElementAndAttributeE7QStringS0_xb
FN:156,_ZN13XmlTestReport22addElementAndAttributeE7QStringS0_ib
FN:164,_ZN13XmlTestReport22addElementAndAttributeE7QStringS0_S0_b
FN:172,_ZN13XmlTestReport12addAttributeE7QStringfi
FN:177,_ZN13XmlTestReport12addAttributeE7QStringx
FN:182,_ZN13XmlTestReport12addAttributeE7QStringi
FN:187,_ZN13XmlTestReport12addAttributeE7QStringS0_
FN:192,_ZN13XmlTestReport13addCharactersEfi
FN:197,_ZN13XmlTestReport13addCharactersEx
FN:202,_ZN13XmlTestReport13addCharactersEi
FN:207,_ZN13XmlTestReport13addCharactersE7QString
FN:212,_ZN13XmlTestReport23addElementAndCharactersE7QStringfi
FN:219,_ZN13XmlTestReport23addElementAndCharactersE7QStringx
FN:226,_ZN13XmlTestReport23addElementAndCharactersE7QStringi
FN:233,_ZN13XmlTestReport23addElementAndCharactersE7QStringS0_
FNDA:7,__cxx_global_var_init
FNDA:7,_ZN13XmlTestReportC2Ev
FNDA:7,_ZN13XmlTestReportC1Ev
FNDA:7,_ZN13XmlTestReportD2Ev
FNDA:7,_ZN13XmlTestReportD1Ev
FNDA:0,_ZN13XmlTestReportD0Ev
FNDA:7,_ZN13XmlTestReport17getNewXmlFileNameEv
FNDA:7,_ZNK13XmlTestReport14getXslFileNameEv
FNDA:14,_ZN13XmlTestReport10openReportEv
FNDA:14,_ZN13XmlTestReport11closeReportEv
FNDA:7,_ZN13XmlTestReport18generateHTMLReportEv
FNDA:147,_ZN13XmlTestReport10addElementE7QString
FNDA:147,_ZN13XmlTestReport12closeElementEv
FNDA:0,_ZN13XmlTestReport22addElementAndAttributeE7QStringS0_fib
FNDA:0,_ZN13XmlTestReport22addElementAndAttributeE7QStringS0_xb
FNDA:0,_ZN13XmlTestReport22addElementAndAttributeE7QStringS0_ib
FNDA:0,_ZN13XmlTestReport22addElementAndAttributeE7QStringS0_S0_b
FNDA:0,_ZN13XmlTestReport12addAttributeE7QStringfi
FNDA:0,_ZN13XmlTestReport12addAttributeE7QStringx
FNDA:0,_ZN13XmlTestReport12addAttributeE7QStringi
FNDA:0,_ZN13XmlTestReport12addAttributeE7QStringS0_
FNDA:35,_ZN13XmlTestReport13addCharactersEfi
FNDA:0,_ZN13XmlTestReport13addCharactersEx
FNDA:56,_ZN13XmlTestReport13addCharactersEi
FNDA:0,_ZN13XmlTestReport13addCharactersE7QString
FNDA:35,_ZN13XmlTestReport23addElementAndCharactersE7QStringfi
FNDA:0,_ZN13XmlTestReport23addElementAndCharactersE7QStringx
FNDA:56,_ZN13XmlTestReport23addElementAndCharactersE7QStringi
FNDA:0,_ZN13XmlTestReport23addElementAndCharactersE7QStringS0_
FNF:29
FNH:16
DA:18,7
DA:23,35
DA:26,14
DA:27,7
DA:28,14
DA:32,42
DA:33,7
DA:34,7
DA:35,7
DA:36,0
DA:40,7
DA:45,14
DA:50,21
DA:52,14
DA:53,0
DA:55,7
DA:57,7
DA:58,21
DA:59,7
DA:62,0
DA:63,0
DA:65,14
DA:69,14
DA:71,14
DA:72,14
DA:74,14
DA:77,14
DA:78,0
DA:81,0
DA:82,0
DA:84,14
DA:85,14
DA:90,14
DA:91,14
DA:94,21
DA:99,21
DA:102,7
DA:105,7
DA:106,21
DA:109,7
DA:110,14
DA:112,7
DA:113,7
DA:114,7
DA:117,0
DA:118,7
DA:121,0
DA:122,0
DA:125,0
DA:126,0
DA:127,7
DA:128,7
DA:132,147
DA:133,147
DA:137,147
DA:138,147
DA:142,0
DA:143,0
DA:144,0
DA:145,0
DA:146,0
DA:150,0
DA:151,0
DA:152,0
DA:153,0
DA:154,0
DA:158,0
DA:159,0
DA:160,0
DA:161,0
DA:162,0
DA:166,0
DA:167,0
DA:168,0
DA:169,0
DA:170,0
DA:174,0
DA:175,0
DA:179,0
DA:180,0
DA:184,0
DA:185,0
DA:189,0
DA:190,0
DA:194,70
DA:195,35
DA:199,0
DA:200,0
DA:204,112
DA:205,56
DA:209,0
DA:210,0
DA:214,70
DA:215,35
DA:216,35
DA:217,35
DA:221,0
DA:222,0
DA:223,0
DA:224,0
DA:228,112
DA:229,56
DA:230,56
DA:231,56
DA:235,0
DA:236,0
DA:237,0
DA:238,0
LF:108
LH:56
end_of_record
